TN:
SF:/home/omer-cohen/Downloads/Operation_System_FINAL-main/boruvka.cpp
FN:12,75,_Z7boruvkaRKSt6vectorISt5tupleIJiiiiEESaIS1_EEi
FN:28,33,_ZZ7boruvkaRKSt6vectorISt5tupleIJiiiiEESaIS1_EEiENKUliiE_clEii
FNDA:1,_Z7boruvkaRKSt6vectorISt5tupleIJiiiiEESaIS1_EEi
FNDA:4,_ZZ7boruvkaRKSt6vectorISt5tupleIJiiiiEESaIS1_EEiENKUliiE_clEii
FNF:2
FNH:2
DA:12,1
DA:14,1
DA:15,1
DA:16,1
DA:17,1
DA:19,1
DA:20,1
DA:21,3
DA:24,2
DA:25,2
DA:26,2
DA:28,0
DA:29,4
DA:30,6
DA:31,2
DA:33,6
DA:35,6
DA:36,4
DA:37,3
DA:38,3
DA:42,4
DA:45,2
DA:46,2
DA:47,2
DA:48,2
DA:49,1
DA:50,1
DA:51,1
DA:52,1
DA:55,2
DA:57,6
DA:59,5
DA:62,2
DA:63,2
DA:65,1
DA:66,1
DA:67,1
DA:68,1
DA:71,2
DA:72,2
DA:74,2
DA:75,1
LF:42
LH:41
end_of_record
TN:
SF:/home/omer-cohen/Downloads/Operation_System_FINAL-main/graph.cpp
FN:15,28,_ZN5Graph7addEdgeEiii
FN:31,40,_ZN5Graph10removeEdgeEii
FN:43,45,_ZNK5Graph14getVertexCountEv
FN:48,50,_ZNK5Graph12getEdgeCountEv
FN:5,8,_ZN5GraphC2Ei
FN:53,55,_ZNK5Graph8getGraphEv
FN:9,12,_ZN5GraphC2Ev
FNDA:2,_ZN5Graph7addEdgeEiii
FNDA:1,_ZN5Graph10removeEdgeEii
FNDA:3,_ZNK5Graph14getVertexCountEv
FNDA:0,_ZNK5Graph12getEdgeCountEv
FNDA:3,_ZN5GraphC2Ei
FNDA:3,_ZNK5Graph8getGraphEv
FNDA:0,_ZN5GraphC2Ev
FNF:7
FNH:5
DA:5,3
DA:7,6
DA:8,3
DA:9,0
DA:11,0
DA:12,0
DA:15,2
DA:16,2
DA:17,0
DA:19,2
DA:20,0
DA:23,2
DA:24,2
DA:26,2
DA:27,2
DA:28,2
DA:31,1
DA:32,1
DA:33,0
DA:35,1
DA:36,1
DA:37,1
DA:38,1
DA:40,1
DA:43,3
DA:44,3
DA:48,0
DA:49,0
DA:53,3
DA:54,3
LF:30
LH:22
end_of_record
TN:
SF:/home/omer-cohen/Downloads/Operation_System_FINAL-main/graph.hpp
FNF:0
FNH:0
LF:0
LH:0
end_of_record
TN:
SF:/home/omer-cohen/Downloads/Operation_System_FINAL-main/mst.cpp
FN:10,17,_ZN3MSTC2ERKSt6vectorIS0_IiSaIiEESaIS2_EEiRKNSt7__cxx1112basic_stringIcSt11char_traitsIcESaIcEEE
FN:121,141,_ZN3MST19getShortestDistanceEii
FN:20,22,_ZN3MST21calculateMSTUsingPrimEv
FN:25,28,_ZN3MST7primMSTEv
FN:31,33,_ZN3MST24calculateMSTUsingBoruvkaEv
FN:36,39,_ZN3MST10boruvkaMSTEv
FN:42,48,_ZN3MST14getTotalWeightEv
FN:51,61,_ZN3MST19convertGraphToEdgesEv
FN:64,83,_ZN3MST18getLongestDistanceEii
FN:86,117,_ZN3MST19getAverageEdgeCountEv
FNDA:2,_ZN3MSTC2ERKSt6vectorIS0_IiSaIiEESaIS2_EEiRKNSt7__cxx1112basic_stringIcSt11char_traitsIcESaIcEEE
FNDA:1,_ZN3MST19getShortestDistanceEii
FNDA:1,_ZN3MST21calculateMSTUsingPrimEv
FNDA:0,_ZN3MST7primMSTEv
FNDA:1,_ZN3MST24calculateMSTUsingBoruvkaEv
FNDA:0,_ZN3MST10boruvkaMSTEv
FNDA:1,_ZN3MST14getTotalWeightEv
FNDA:2,_ZN3MST19convertGraphToEdgesEv
FNDA:1,_ZN3MST18getLongestDistanceEii
FNDA:1,_ZN3MST19getAverageEdgeCountEv
FNF:10
FNH:8
DA:10,2
DA:12,2
DA:13,1
DA:14,1
DA:15,1
DA:17,2
DA:20,1
DA:21,1
DA:22,1
DA:25,0
DA:26,0
DA:27,0
DA:31,1
DA:32,1
DA:33,1
DA:36,0
DA:37,0
DA:38,0
DA:42,1
DA:43,1
DA:44,2
DA:45,1
DA:47,1
DA:51,2
DA:52,2
DA:53,6
DA:54,6
DA:55,2
DA:56,2
DA:60,2
DA:61,0
DA:64,1
DA:65,1
DA:66,1
DA:67,1
DA:68,1
DA:70,3
DA:71,2
DA:72,2
DA:74,6
DA:75,4
DA:76,1
DA:77,1
DA:82,2
DA:83,1
DA:86,1
DA:88,1
DA:89,1
DA:90,1
DA:93,1
DA:95,3
DA:96,6
DA:97,12
DA:98,8
DA:99,8
DA:106,3
DA:107,3
DA:108,1
DA:109,1
DA:110,1
DA:116,2
DA:117,1
DA:121,1
DA:122,1
DA:123,1
DA:125,1
DA:126,1
DA:128,3
DA:129,2
DA:130,2
DA:132,6
DA:133,4
DA:134,1
DA:135,1
DA:140,2
DA:141,1
LF:76
LH:69
end_of_record
TN:
SF:/home/omer-cohen/Downloads/Operation_System_FINAL-main/mst.hpp
FN:13,13,_ZN3MSTC2ERKSt6vectorIS0_IiSaIiEESaIS2_EEi
FNDA:1,_ZN3MSTC2ERKSt6vectorIS0_IiSaIiEESaIS2_EEi
FNF:1
FNH:1
DA:13,1
LF:1
LH:1
end_of_record
TN:
SF:/home/omer-cohen/Downloads/Operation_System_FINAL-main/pipeline_server.cpp
FN:104,119,_Z4menuB5cxx11v
FN:121,137,_Z24check_is_valid_operationibb
FN:139,377,_Z20handleClientPipelinei
FN:211,215,_ZZ20handleClientPipelineiENKUlvE_clEv
FN:237,242,_ZZ20handleClientPipelineiENKUlvE0_clEv
FN:256,261,_ZZ20handleClientPipelineiENKUlvE1_clEv
FN:291,296,_ZZ20handleClientPipelineiENKUlvE2_clEv
FN:304,308,_ZZ20handleClientPipelineiENKUlvE3_clEv
FN:325,329,_ZZ20handleClientPipelineiENKUlvE4_clEv
FN:347,351,_ZZ20handleClientPipelineiENKUlvE5_clEv
FN:359,363,_ZZ20handleClientPipelineiENKUlvE6_clEv
FN:383,450,main
FN:40,63,_ZN12ActiveObjectC2Ev
FN:42,62,_ZZN12ActiveObjectC4EvENKUlvE_clEv
FN:49,49,_ZZZN12ActiveObjectC4EvENKUlvE_clEvENKUlvE_clEv
FN:71,79,_ZN12ActiveObject4postESt8functionIFvvEE
FN:85,96,_ZN12ActiveObject4stopEv
FN:97,100,_ZN12ActiveObjectD2Ev
FNDA:15,_Z4menuB5cxx11v
FNDA:8,_Z24check_is_valid_operationibb
FNDA:1,_Z20handleClientPipelinei
FNDA:1,_ZZ20handleClientPipelineiENKUlvE_clEv
FNDA:1,_ZZ20handleClientPipelineiENKUlvE0_clEv
FNDA:1,_ZZ20handleClientPipelineiENKUlvE1_clEv
FNDA:2,_ZZ20handleClientPipelineiENKUlvE2_clEv
FNDA:1,_ZZ20handleClientPipelineiENKUlvE3_clEv
FNDA:1,_ZZ20handleClientPipelineiENKUlvE4_clEv
FNDA:1,_ZZ20handleClientPipelineiENKUlvE5_clEv
FNDA:1,_ZZ20handleClientPipelineiENKUlvE6_clEv
FNDA:1,main
FNDA:3,_ZN12ActiveObjectC2Ev
FNDA:3,_ZZN12ActiveObjectC4EvENKUlvE_clEv
FNDA:24,_ZZZN12ActiveObjectC4EvENKUlvE_clEvENKUlvE_clEv
FNDA:9,_ZN12ActiveObject4postESt8functionIFvvEE
FNDA:3,_ZN12ActiveObject4stopEv
FNDA:3,_ZN12ActiveObjectD2Ev
FNF:18
FNH:18
DA:40,3
DA:41,3
DA:42,6
DA:45,12
DA:46,12
DA:48,12
DA:49,36
DA:50,12
DA:52,3
DA:54,9
DA:55,9
DA:56,12
DA:58,9
DA:59,12
DA:60,0
DA:61,0
DA:62,3
DA:63,3
DA:71,9
DA:74,9
DA:75,9
DA:77,9
DA:78,9
DA:79,9
DA:85,3
DA:88,3
DA:89,3
DA:90,3
DA:91,3
DA:92,3
DA:94,3
DA:96,3
DA:97,3
DA:99,3
DA:100,3
DA:104,15
DA:106,15
DA:107,15
DA:108,15
DA:109,15
DA:110,15
DA:111,15
DA:112,15
DA:113,15
DA:114,15
DA:115,15
DA:116,15
DA:117,15
DA:118,30
DA:119,15
DA:121,8
DA:123,8
DA:125,0
DA:126,0
DA:127,0
DA:128,0
DA:130,8
DA:132,4
DA:133,4
DA:134,4
DA:135,4
DA:136,4
DA:139,1
DA:144,1
DA:145,1
DA:146,1
DA:153,15
DA:154,15
DA:157,15
DA:158,15
DA:159,15
DA:161,0
DA:162,0
DA:163,0
DA:166,15
DA:167,15
DA:169,15
DA:171,15
DA:173,1
DA:175,1
DA:176,1
DA:177,1
DA:179,2
DA:181,2
DA:182,2
DA:184,2
DA:185,2
DA:186,2
DA:189,2
DA:191,2
DA:192,2
DA:194,2
DA:195,2
DA:196,2
DA:199,3
DA:201,1
DA:202,1
DA:205,1
DA:206,1
DA:207,1
DA:208,1
DA:211,1
DA:213,1
DA:214,1
DA:215,1
DA:218,1
DA:220,2
DA:221,2
DA:222,2
DA:223,2
DA:224,2
DA:225,2
DA:226,1
DA:228,1
DA:229,1
DA:232,1
DA:233,1
DA:234,1
DA:235,1
DA:237,1
DA:239,1
DA:240,1
DA:241,1
DA:242,1
DA:243,1
DA:244,1
DA:245,1
DA:247,1
DA:248,1
DA:251,1
DA:252,1
DA:253,1
DA:254,1
DA:256,1
DA:258,1
DA:259,1
DA:260,1
DA:261,1
DA:262,1
DA:263,1
DA:265,2
DA:268,2
DA:270,0
DA:271,0
DA:272,0
DA:273,0
DA:274,2
DA:275,2
DA:277,2
DA:278,2
DA:279,2
DA:282,2
DA:285,2
DA:286,0
DA:287,0
DA:288,0
DA:289,0
DA:291,2
DA:293,2
DA:294,2
DA:295,2
DA:296,2
DA:297,2
DA:298,2
DA:299,2
DA:302,2
DA:304,1
DA:306,1
DA:307,1
DA:308,1
DA:309,1
DA:311,2
DA:314,2
DA:316,1
DA:317,1
DA:319,1
DA:320,1
DA:321,1
DA:323,1
DA:325,1
DA:327,1
DA:328,1
DA:329,1
DA:330,1
DA:332,1
DA:333,2
DA:336,2
DA:338,1
DA:339,1
DA:341,1
DA:342,1
DA:343,1
DA:345,1
DA:347,1
DA:349,1
DA:350,1
DA:351,1
DA:352,1
DA:353,1
DA:354,2
DA:357,2
DA:359,1
DA:361,1
DA:362,1
DA:363,1
DA:364,1
DA:366,0
DA:368,0
DA:369,0
DA:371,0
DA:372,0
DA:373,0
DA:374,0
DA:376,31
DA:377,1
DA:383,1
DA:388,1
DA:389,1
DA:392,1
DA:394,0
DA:395,0
DA:399,1
DA:401,0
DA:402,0
DA:403,0
DA:406,1
DA:407,1
DA:408,1
DA:411,1
DA:413,0
DA:414,0
DA:415,0
DA:419,1
DA:421,0
DA:422,0
DA:423,0
DA:429,1
DA:432,1
DA:434,1
DA:435,1
DA:436,1
DA:438,1
DA:439,1
DA:443,0
DA:445,0
DA:448,0
DA:449,0
LF:247
LH:208
end_of_record
TN:
SF:/home/omer-cohen/Downloads/Operation_System_FINAL-main/prim.cpp
FN:17,20,_ZNK4EdgeltERKS_
FN:21,25,_ZN4EdgeC2Ev
FN:26,26,_ZN4EdgeC2Eiii
FN:29,61,_Z5_primRKSt6vectorIS_I4EdgeSaIS0_EESaIS2_EEi
FN:64,78,_Z4primRKSt6vectorISt5tupleIJiiiiEESaIS1_EEi
FNDA:0,_ZNK4EdgeltERKS_
FNDA:2,_ZN4EdgeC2Ev
FNDA:6,_ZN4EdgeC2Eiii
FNDA:1,_Z5_primRKSt6vectorIS_I4EdgeSaIS0_EESaIS2_EEi
FNDA:1,_Z4primRKSt6vectorISt5tupleIJiiiiEESaIS1_EEi
FNF:5
FNH:4
DA:17,0
DA:19,0
DA:21,2
DA:22,2
DA:23,2
DA:24,2
DA:25,2
DA:26,6
DA:29,1
DA:31,1
DA:33,1
DA:34,1
DA:35,1
DA:36,1
DA:38,1
DA:39,3
DA:41,2
DA:42,2
DA:43,2
DA:45,2
DA:47,1
DA:50,4
DA:52,2
DA:54,1
DA:55,1
DA:56,1
DA:60,2
DA:61,1
DA:64,1
DA:66,1
DA:67,2
DA:70,1
DA:71,1
DA:72,1
DA:75,1
DA:77,2
DA:78,1
LF:37
LH:35
end_of_record
TN:
SF:/usr/include/c++/13/bits/alloc_traits.h
FNF:0
FNH:0
DA:482,52
DA:517,52
DA:538,24
DA:542,24
DA:562,16
DA:574,30
DA:588,22
DA:722,0
DA:755,8
DA:759,8
DA:948,57
DA:949,57
LF:12
LH:11
end_of_record
TN:
SF:/usr/include/c++/13/bits/allocator.h
FNF:0
FNH:0
DA:163,87
DA:168,79
DA:178,13
DA:184,120
DA:223,0
LF:5
LH:4
end_of_record
TN:
SF:/usr/include/c++/13/bits/basic_string.h
FN:3528,3541,_ZSt12__str_concatINSt7__cxx1112basic_stringIcSt11char_traitsIcESaIcEEEET_PKNS6_10value_typeENS6_9size_typeES9_SA_RKNS6_14allocator_typeE
FN:3571,3579,_ZStplIcSt11char_traitsIcESaIcEENSt7__cxx1112basic_stringIT_T0_T1_EEPKS5_RKS8_
FN:3651,3669,_ZStplIcSt11char_traitsIcESaIcEENSt7__cxx1112basic_stringIT_T0_T1_EEOS8_S9_
FN:3674,3676,_ZStplIcSt11char_traitsIcESaIcEENSt7__cxx1112basic_stringIT_T0_T1_EEPKS5_OS8_
FN:3688,3690,_ZStplIcSt11char_traitsIcESaIcEENSt7__cxx1112basic_stringIT_T0_T1_EEOS8_PKS5_
FN:3727,3732,_ZSteqIcSt11char_traitsIcESaIcEEbRKNSt7__cxx1112basic_stringIT_T0_T1_EEPKS5_
FN:3815,3817,_ZStneIcSt11char_traitsIcESaIcEEbRKNSt7__cxx1112basic_stringIT_T0_T1_EEPKS5_
FN:4120,4122,_ZNSt7__cxx114stoiERKNS_12basic_stringIcSt11char_traitsIcESaIcEEEPmi
FN:4162,4173,_ZNSt7__cxx119to_stringEi
FN:641,650,_ZNSt7__cxx1112basic_stringIcSt11char_traitsIcESaIcEEC2IS3_EEPKcRKS3_
FN:664,666,_ZNSt7__cxx1112basic_stringIcSt11char_traitsIcESaIcEEC2IS3_EEmcRKS3_
FNDA:2,_ZSt12__str_concatINSt7__cxx1112basic_stringIcSt11char_traitsIcESaIcEEEET_PKNS6_10value_typeENS6_9size_typeES9_SA_RKNS6_14allocator_typeE
FNDA:2,_ZStplIcSt11char_traitsIcESaIcEENSt7__cxx1112basic_stringIT_T0_T1_EEPKS5_RKS8_
FNDA:9,_ZStplIcSt11char_traitsIcESaIcEENSt7__cxx1112basic_stringIT_T0_T1_EEOS8_S9_
FNDA:7,_ZStplIcSt11char_traitsIcESaIcEENSt7__cxx1112basic_stringIT_T0_T1_EEPKS5_OS8_
FNDA:18,_ZStplIcSt11char_traitsIcESaIcEENSt7__cxx1112basic_stringIT_T0_T1_EEOS8_PKS5_
FNDA:6,_ZSteqIcSt11char_traitsIcESaIcEEbRKNSt7__cxx1112basic_stringIT_T0_T1_EEPKS5_
FNDA:3,_ZStneIcSt11char_traitsIcESaIcEEbRKNSt7__cxx1112basic_stringIT_T0_T1_EEPKS5_
FNDA:4,_ZNSt7__cxx114stoiERKNS_12basic_stringIcSt11char_traitsIcESaIcEEEPmi
FNDA:16,_ZNSt7__cxx119to_stringEi
FNDA:38,_ZNSt7__cxx1112basic_stringIcSt11char_traitsIcESaIcEEC2IS3_EEPKcRKS3_
FNDA:16,_ZNSt7__cxx1112basic_stringIcSt11char_traitsIcESaIcEEC2IS3_EEmcRKS3_
FNF:11
FNH:11
DA:355,26
DA:641,38
DA:642,38
DA:645,38
DA:646,0
DA:648,38
DA:649,38
DA:650,38
DA:664,16
DA:665,16
DA:666,16
DA:3528,2
DA:3536,2
DA:3537,2
DA:3538,2
DA:3539,2
DA:3540,2
DA:3541,0
DA:3571,2
DA:3578,4
DA:3651,9
DA:3656,9
DA:3658,9
DA:3661,9
DA:3664,9
DA:3665,9
DA:3666,0
DA:3668,9
DA:3674,7
DA:3676,7
DA:3688,18
DA:3690,18
DA:3727,6
DA:3730,6
DA:3731,6
DA:3815,3
DA:3817,3
DA:4120,4
DA:4121,4
DA:4122,4
DA:4162,16
DA:4167,16
DA:4168,16
DA:4169,16
DA:4170,16
DA:4171,16
DA:4172,16
LF:47
LH:44
end_of_record
TN:
SF:/usr/include/c++/13/bits/basic_string.tcc
FN:221,252,_ZNSt7__cxx1112basic_stringIcSt11char_traitsIcESaIcEE12_M_constructIPKcEEvT_S8_St20forward_iterator_tag
FN:239,239,_ZZNSt7__cxx1112basic_stringIcSt11char_traitsIcESaIcEE12_M_constructIPKcEEvT_S8_St20forward_iterator_tagEN6_GuardC2EPS4_
FN:242,242,_ZZNSt7__cxx1112basic_stringIcSt11char_traitsIcESaIcEE12_M_constructIPKcEEvT_S8_St20forward_iterator_tagEN6_GuardD2Ev
FNDA:38,_ZNSt7__cxx1112basic_stringIcSt11char_traitsIcESaIcEE12_M_constructIPKcEEvT_S8_St20forward_iterator_tag
FNDA:38,_ZZNSt7__cxx1112basic_stringIcSt11char_traitsIcESaIcEE12_M_constructIPKcEEvT_S8_St20forward_iterator_tagEN6_GuardC2EPS4_
FNDA:38,_ZZNSt7__cxx1112basic_stringIcSt11char_traitsIcESaIcEE12_M_constructIPKcEEvT_S8_St20forward_iterator_tagEN6_GuardD2Ev
FNF:3
FNH:3
DA:221,38
DA:225,38
DA:227,38
DA:229,12
DA:230,12
DA:239,38
DA:242,38
DA:245,38
DA:247,38
DA:249,38
DA:251,38
DA:252,38
LF:12
LH:12
end_of_record
TN:
SF:/usr/include/c++/13/bits/char_traits.h
FN:136,137,_ZN9__gnu_cxx11char_traitsIcE2eqERKcS3_
FN:199,206,_ZN9__gnu_cxx11char_traitsIcE6lengthEPKc
FN:366,371,_ZNSt11char_traitsIcE2ltERKcS2_
FN:374,390,_ZNSt11char_traitsIcE7compareEPKcS2_m
FN:393,400,_ZNSt11char_traitsIcE6lengthEPKc
FN:427,436,_ZNSt11char_traitsIcE4copyEPcPKcm
FNDA:0,_ZN9__gnu_cxx11char_traitsIcE2eqERKcS3_
FNDA:0,_ZN9__gnu_cxx11char_traitsIcE6lengthEPKc
FNDA:0,_ZNSt11char_traitsIcE2ltERKcS2_
FNDA:4,_ZNSt11char_traitsIcE7compareEPKcS2_m
FNDA:46,_ZNSt11char_traitsIcE6lengthEPKc
FNDA:0,_ZNSt11char_traitsIcE4copyEPcPKcm
FNF:6
FNH:2
DA:136,0
DA:137,0
DA:199,0
DA:202,0
DA:203,0
DA:204,0
DA:205,0
DA:366,0
DA:369,0
DA:370,0
DA:374,4
DA:376,4
DA:377,0
DA:379,4
DA:381,0
DA:382,0
DA:383,0
DA:384,0
DA:385,0
DA:386,0
DA:389,4
DA:393,46
DA:396,46
DA:397,0
DA:399,46
DA:427,0
DA:429,0
DA:430,0
DA:435,0
LF:29
LH:7
end_of_record
TN:
SF:/usr/include/c++/13/bits/charconv.h
FN:55,74,_ZNSt8__detail14__to_chars_lenIjEEjT_i
FN:81,110,_ZNSt8__detail18__to_chars_10_implIjEEvPcjT_
FNDA:16,_ZNSt8__detail14__to_chars_lenIjEEjT_i
FNDA:16,_ZNSt8__detail18__to_chars_10_implIjEEvPcjT_
FNF:2
FNH:2
DA:55,16
DA:61,16
DA:62,16
DA:63,16
DA:64,16
DA:67,16
DA:68,0
DA:69,0
DA:70,0
DA:71,0
DA:72,0
DA:81,16
DA:87,16
DA:93,16
DA:94,16
DA:96,0
DA:97,0
DA:98,0
DA:99,0
DA:100,0
DA:102,16
DA:104,0
DA:105,0
DA:106,0
DA:109,16
DA:110,16
LF:26
LH:13
end_of_record
TN:
SF:/usr/include/c++/13/bits/cpp_type_traits.h
FN:607,608,_ZSt12__miter_baseIN9__gnu_cxx17__normal_iteratorIPKiSt6vectorIiSaIiEEEEET_S8_
FN:607,608,_ZSt12__miter_baseIPPSt8functionIFvvEEET_S5_
FN:607,608,_ZSt12__miter_baseIPPiET_S2_
FN:607,608,_ZSt12__miter_baseIPSt6vectorIiSaIiEEET_S4_
FN:607,608,_ZSt12__miter_baseIPiET_S1_
FNDA:26,_ZSt12__miter_baseIN9__gnu_cxx17__normal_iteratorIPKiSt6vectorIiSaIiEEEEET_S8_
FNDA:0,_ZSt12__miter_baseIPPSt8functionIFvvEEET_S5_
FNDA:0,_ZSt12__miter_baseIPPiET_S2_
FNDA:0,_ZSt12__miter_baseIPSt6vectorIiSaIiEEET_S4_
FNDA:0,_ZSt12__miter_baseIPiET_S1_
FNF:5
FNH:1
DA:607,26
DA:608,26
LF:2
LH:2
end_of_record
TN:
SF:/usr/include/c++/13/bits/deque.tcc
FN:484,516,_ZNSt5dequeISt8functionIFvvEESaIS2_EE16_M_push_back_auxIJRKS2_EEEvDpOT_
FN:484,516,_ZNSt5dequeIiSaIiEE16_M_push_back_auxIJRKiEEEvDpOT_
FN:576,584,_ZNSt5dequeISt8functionIFvvEESaIS2_EE16_M_pop_front_auxEv
FN:576,584,_ZNSt5dequeIiSaIiEE16_M_pop_front_auxEv
FN:859,877,_ZNSt5dequeISt8functionIFvvEESaIS2_EE19_M_destroy_data_auxESt15_Deque_iteratorIS2_RS2_PS2_ES8_
FN:931,973,_ZNSt5dequeISt8functionIFvvEESaIS2_EE17_M_reallocate_mapEmb
FN:931,973,_ZNSt5dequeIiSaIiEE17_M_reallocate_mapEmb
FNDA:0,_ZNSt5dequeISt8functionIFvvEESaIS2_EE16_M_push_back_auxIJRKS2_EEEvDpOT_
FNDA:0,_ZNSt5dequeIiSaIiEE16_M_push_back_auxIJRKiEEEvDpOT_
FNDA:0,_ZNSt5dequeISt8functionIFvvEESaIS2_EE16_M_pop_front_auxEv
FNDA:0,_ZNSt5dequeIiSaIiEE16_M_pop_front_auxEv
FNDA:3,_ZNSt5dequeISt8functionIFvvEESaIS2_EE19_M_destroy_data_auxESt15_Deque_iteratorIS2_RS2_PS2_ES8_
FNDA:0,_ZNSt5dequeISt8functionIFvvEESaIS2_EE17_M_reallocate_mapEmb
FNDA:0,_ZNSt5dequeIiSaIiEE17_M_reallocate_mapEmb
FNF:7
FNH:1
DA:484,0
DA:492,0
DA:493,0
DA:496,0
DA:497,0
DA:501,0
DA:507,0
DA:509,0
DA:511,0
DA:513,0
DA:514,0
DA:516,0
DA:576,0
DA:579,0
DA:581,0
DA:582,0
DA:583,0
DA:584,0
DA:859,3
DA:862,3
DA:863,3
DA:864,0
DA:865,0
DA:867,3
DA:869,0
DA:870,0
DA:871,0
DA:872,0
DA:875,3
DA:876,3
DA:877,3
DA:931,0
DA:934,0
DA:935,0
DA:936,0
DA:939,0
DA:941,0
DA:942,0
DA:943,0
DA:944,0
DA:945,0
DA:946,0
DA:949,0
DA:950,0
DA:951,0
DA:955,0
DA:956,0
DA:959,0
DA:960,0
DA:961,0
DA:962,0
DA:963,0
DA:965,0
DA:967,0
DA:968,0
DA:971,0
DA:972,0
DA:973,0
LF:58
LH:7
end_of_record
TN:
SF:/usr/include/c++/13/bits/functional_hash.h
FN:154,154,_ZNKSt4hashIiEclEi
FNDA:2,_ZNKSt4hashIiEclEi
FNF:1
FNH:1
DA:154,2
LF:1
LH:1
end_of_record
TN:
SF:/usr/include/c++/13/bits/hashtable.h
FN:1595,1610,_ZNSt10_HashtableIiiSaIiENSt8__detail9_IdentityESt8equal_toIiESt4hashIiENS1_18_Mod_range_hashingENS1_20_Default_ranged_hashENS1_20_Prime_rehash_policyENS1_17_Hashtable_traitsILb0ELb1ELb1EEEED2Ev
FN:1664,1680,_ZNSt10_HashtableIiiSaIiENSt8__detail9_IdentityESt8equal_toIiESt4hashIiENS1_18_Mod_range_hashingENS1_20_Default_ranged_hashENS1_20_Prime_rehash_policyENS1_17_Hashtable_traitsILb0ELb1ELb1EEEE4findERKi
FN:1948,1970,_ZNKSt10_HashtableIiiSaIiENSt8__detail9_IdentityESt8equal_toIiESt4hashIiENS1_18_Mod_range_hashingENS1_20_Default_ranged_hashENS1_20_Prime_rehash_policyENS1_17_Hashtable_traitsILb0ELb1ELb1EEEE19_M_find_before_nodeEmRKim
FN:1978,2000,_ZNKSt10_HashtableIiiSaIiENSt8__detail9_IdentityESt8equal_toIiESt4hashIiENS1_18_Mod_range_hashingENS1_20_Default_ranged_hashENS1_20_Prime_rehash_policyENS1_17_Hashtable_traitsILb0ELb1ELb1EEEE22_M_find_before_node_trIiEEPNS1_15_Hash_node_baseEmRKT_m
FN:2007,2033,_ZNSt10_HashtableIiiSaIiENSt8__detail9_IdentityESt8equal_toIiESt4hashIiENS1_18_Mod_range_hashingENS1_20_Default_ranged_hashENS1_20_Prime_rehash_policyENS1_17_Hashtable_traitsILb0ELb1ELb1EEEE22_M_insert_bucket_beginEmPNS1_10_Hash_nodeIiLb0EEE
FN:2166,2189,_ZNSt10_HashtableIiiSaIiENSt8__detail9_IdentityESt8equal_toIiESt4hashIiENS1_18_Mod_range_hashingENS1_20_Default_ranged_hashENS1_20_Prime_rehash_policyENS1_17_Hashtable_traitsILb0ELb1ELb1EEEE21_M_insert_unique_nodeEmmPNS1_10_Hash_nodeIiLb0EEEm
FN:2253,2281,_ZNSt10_HashtableIiiSaIiENSt8__detail9_IdentityESt8equal_toIiESt4hashIiENS1_18_Mod_range_hashingENS1_20_Default_ranged_hashENS1_20_Prime_rehash_policyENS1_17_Hashtable_traitsILb0ELb1ELb1EEEE16_M_insert_uniqueIRKiSF_NS1_10_AllocNodeISaINS1_10_Hash_nodeIiLb0EEEEEEEESt4pairINS1_14_Node_iteratorIiLb1ELb0EEEbEOT_OT0_RKT1_
FN:2520,2529,_ZNSt10_HashtableIiiSaIiENSt8__detail9_IdentityESt8equal_toIiESt4hashIiENS1_18_Mod_range_hashingENS1_20_Default_ranged_hashENS1_20_Prime_rehash_policyENS1_17_Hashtable_traitsILb0ELb1ELb1EEEE5clearEv
FN:2559,2574,_ZNSt10_HashtableIiiSaIiENSt8__detail9_IdentityESt8equal_toIiESt4hashIiENS1_18_Mod_range_hashingENS1_20_Default_ranged_hashENS1_20_Prime_rehash_policyENS1_17_Hashtable_traitsILb0ELb1ELb1EEEE9_M_rehashEmRKm
FN:2582,2616,_ZNSt10_HashtableIiiSaIiENSt8__detail9_IdentityESt8equal_toIiESt4hashIiENS1_18_Mod_range_hashingENS1_20_Default_ranged_hashENS1_20_Prime_rehash_policyENS1_17_Hashtable_traitsILb0ELb1ELb1EEEE13_M_rehash_auxEmSt17integral_constantIbLb1EE
FN:300,301,_ZNSt10_HashtableIiiSaIiENSt8__detail9_IdentityESt8equal_toIiESt4hashIiENS1_18_Mod_range_hashingENS1_20_Default_ranged_hashENS1_20_Prime_rehash_policyENS1_17_Hashtable_traitsILb0ELb1ELb1EEEE12_Scoped_nodeC2EPNS1_10_Hash_nodeIiLb0EEEPNS1_16_Hashtable_allocISaISF_EEE
FN:311,311,_ZNSt10_HashtableIiiSaIiENSt8__detail9_IdentityESt8equal_toIiESt4hashIiENS1_18_Mod_range_hashingENS1_20_Default_ranged_hashENS1_20_Prime_rehash_policyENS1_17_Hashtable_traitsILb0ELb1ELb1EEEE12_Scoped_nodeD2Ev
FN:416,417,_ZNKSt10_HashtableIiiSaIiENSt8__detail9_IdentityESt8equal_toIiESt4hashIiENS1_18_Mod_range_hashingENS1_20_Default_ranged_hashENS1_20_Prime_rehash_policyENS1_17_Hashtable_traitsILb0ELb1ELb1EEEE21_M_uses_single_bucketEPPNS1_15_Hash_node_baseE
FN:424,428,_ZNSt10_HashtableIiiSaIiENSt8__detail9_IdentityESt8equal_toIiESt4hashIiENS1_18_Mod_range_hashingENS1_20_Default_ranged_hashENS1_20_Prime_rehash_policyENS1_17_Hashtable_traitsILb0ELb1ELb1EEEE22__small_size_thresholdEv
FN:434,443,_ZNSt10_HashtableIiiSaIiENSt8__detail9_IdentityESt8equal_toIiESt4hashIiENS1_18_Mod_range_hashingENS1_20_Default_ranged_hashENS1_20_Prime_rehash_policyENS1_17_Hashtable_traitsILb0ELb1ELb1EEEE19_M_allocate_bucketsEm
FN:446,452,_ZNSt10_HashtableIiiSaIiENSt8__detail9_IdentityESt8equal_toIiESt4hashIiENS1_18_Mod_range_hashingENS1_20_Default_ranged_hashENS1_20_Prime_rehash_policyENS1_17_Hashtable_traitsILb0ELb1ELb1EEEE21_M_deallocate_bucketsEPPNS1_15_Hash_node_baseEm
FN:455,456,_ZNSt10_HashtableIiiSaIiENSt8__detail9_IdentityESt8equal_toIiESt4hashIiENS1_18_Mod_range_hashingENS1_20_Default_ranged_hashENS1_20_Prime_rehash_policyENS1_17_Hashtable_traitsILb0ELb1ELb1EEEE21_M_deallocate_bucketsEv
FN:464,465,_ZNKSt10_HashtableIiiSaIiENSt8__detail9_IdentityESt8equal_toIiESt4hashIiENS1_18_Mod_range_hashingENS1_20_Default_ranged_hashENS1_20_Prime_rehash_policyENS1_17_Hashtable_traitsILb0ELb1ELb1EEEE8_M_beginEv
FN:530,530,_ZNSt10_HashtableIiiSaIiENSt8__detail9_IdentityESt8equal_toIiESt4hashIiENS1_18_Mod_range_hashingENS1_20_Default_ranged_hashENS1_20_Prime_rehash_policyENS1_17_Hashtable_traitsILb0ELb1ELb1EEEEC2Ev
FN:623,624,_ZNSt10_HashtableIiiSaIiENSt8__detail9_IdentityESt8equal_toIiESt4hashIiENS1_18_Mod_range_hashingENS1_20_Default_ranged_hashENS1_20_Prime_rehash_policyENS1_17_Hashtable_traitsILb0ELb1ELb1EEEE5beginEv
FN:631,632,_ZNSt10_HashtableIiiSaIiENSt8__detail9_IdentityESt8equal_toIiESt4hashIiENS1_18_Mod_range_hashingENS1_20_Default_ranged_hashENS1_20_Prime_rehash_policyENS1_17_Hashtable_traitsILb0ELb1ELb1EEEE3endEv
FN:647,648,_ZNKSt10_HashtableIiiSaIiENSt8__detail9_IdentityESt8equal_toIiESt4hashIiENS1_18_Mod_range_hashingENS1_20_Default_ranged_hashENS1_20_Prime_rehash_policyENS1_17_Hashtable_traitsILb0ELb1ELb1EEEE4sizeEv
FN:792,793,_ZNKSt10_HashtableIiiSaIiENSt8__detail9_IdentityESt8equal_toIiESt4hashIiENS1_18_Mod_range_hashingENS1_20_Default_ranged_hashENS1_20_Prime_rehash_policyENS1_17_Hashtable_traitsILb0ELb1ELb1EEEE15_M_bucket_indexERKNS1_16_Hash_node_valueIiLb0EEE
FN:796,797,_ZNKSt10_HashtableIiiSaIiENSt8__detail9_IdentityESt8equal_toIiESt4hashIiENS1_18_Mod_range_hashingENS1_20_Default_ranged_hashENS1_20_Prime_rehash_policyENS1_17_Hashtable_traitsILb0ELb1ELb1EEEE15_M_bucket_indexEm
FN:812,819,_ZNKSt10_HashtableIiiSaIiENSt8__detail9_IdentityESt8equal_toIiESt4hashIiENS1_18_Mod_range_hashingENS1_20_Default_ranged_hashENS1_20_Prime_rehash_policyENS1_17_Hashtable_traitsILb0ELb1ELb1EEEE12_M_find_nodeEmRKim
FN:823,830,_ZNKSt10_HashtableIiiSaIiENSt8__detail9_IdentityESt8equal_toIiESt4hashIiENS1_18_Mod_range_hashingENS1_20_Default_ranged_hashENS1_20_Prime_rehash_policyENS1_17_Hashtable_traitsILb0ELb1ELb1EEEE15_M_find_node_trIiEEPNS1_10_Hash_nodeIiLb0EEEmRKT_m
FN:893,894,_ZNSt10_HashtableIiiSaIiENSt8__detail9_IdentityESt8equal_toIiESt4hashIiENS1_18_Mod_range_hashingENS1_20_Default_ranged_hashENS1_20_Prime_rehash_policyENS1_17_Hashtable_traitsILb0ELb1ELb1EEEE14_S_forward_keyERKi
FN:902,907,_ZNSt10_HashtableIiiSaIiENSt8__detail9_IdentityESt8equal_toIiESt4hashIiENS1_18_Mod_range_hashingENS1_20_Default_ranged_hashENS1_20_Prime_rehash_policyENS1_17_Hashtable_traitsILb0ELb1ELb1EEEE20_M_insert_unique_auxIRKiNS1_10_AllocNodeISaINS1_10_Hash_nodeIiLb0EEEEEEEESt4pairINS1_14_Node_iteratorIiLb1ELb0EEEbEOT_RKT0_
FN:911,918,_ZNSt10_HashtableIiiSaIiENSt8__detail9_IdentityESt8equal_toIiESt4hashIiENS1_18_Mod_range_hashingENS1_20_Default_ranged_hashENS1_20_Prime_rehash_policyENS1_17_Hashtable_traitsILb0ELb1ELb1EEEE9_M_insertIRKiNS1_10_AllocNodeISaINS1_10_Hash_nodeIiLb0EEEEEEEESt4pairINS1_14_Node_iteratorIiLb1ELb0EEEbEOT_RKT0_St17integral_constantIbLb1EE
FNDA:2,_ZNSt10_HashtableIiiSaIiENSt8__detail9_IdentityESt8equal_toIiESt4hashIiENS1_18_Mod_range_hashingENS1_20_Default_ranged_hashENS1_20_Prime_rehash_policyENS1_17_Hashtable_traitsILb0ELb1ELb1EEEED2Ev
FNDA:2,_ZNSt10_HashtableIiiSaIiENSt8__detail9_IdentityESt8equal_toIiESt4hashIiENS1_18_Mod_range_hashingENS1_20_Default_ranged_hashENS1_20_Prime_rehash_policyENS1_17_Hashtable_traitsILb0ELb1ELb1EEEE4findERKi
FNDA:1,_ZNKSt10_HashtableIiiSaIiENSt8__detail9_IdentityESt8equal_toIiESt4hashIiENS1_18_Mod_range_hashingENS1_20_Default_ranged_hashENS1_20_Prime_rehash_policyENS1_17_Hashtable_traitsILb0ELb1ELb1EEEE19_M_find_before_nodeEmRKim
FNDA:0,_ZNKSt10_HashtableIiiSaIiENSt8__detail9_IdentityESt8equal_toIiESt4hashIiENS1_18_Mod_range_hashingENS1_20_Default_ranged_hashENS1_20_Prime_rehash_policyENS1_17_Hashtable_traitsILb0ELb1ELb1EEEE22_M_find_before_node_trIiEEPNS1_15_Hash_node_baseEmRKT_m
FNDA:1,_ZNSt10_HashtableIiiSaIiENSt8__detail9_IdentityESt8equal_toIiESt4hashIiENS1_18_Mod_range_hashingENS1_20_Default_ranged_hashENS1_20_Prime_rehash_policyENS1_17_Hashtable_traitsILb0ELb1ELb1EEEE22_M_insert_bucket_beginEmPNS1_10_Hash_nodeIiLb0EEE
FNDA:1,_ZNSt10_HashtableIiiSaIiENSt8__detail9_IdentityESt8equal_toIiESt4hashIiENS1_18_Mod_range_hashingENS1_20_Default_ranged_hashENS1_20_Prime_rehash_policyENS1_17_Hashtable_traitsILb0ELb1ELb1EEEE21_M_insert_unique_nodeEmmPNS1_10_Hash_nodeIiLb0EEEm
FNDA:1,_ZNSt10_HashtableIiiSaIiENSt8__detail9_IdentityESt8equal_toIiESt4hashIiENS1_18_Mod_range_hashingENS1_20_Default_ranged_hashENS1_20_Prime_rehash_policyENS1_17_Hashtable_traitsILb0ELb1ELb1EEEE16_M_insert_uniqueIRKiSF_NS1_10_AllocNodeISaINS1_10_Hash_nodeIiLb0EEEEEEEESt4pairINS1_14_Node_iteratorIiLb1ELb0EEEbEOT_OT0_RKT1_
FNDA:2,_ZNSt10_HashtableIiiSaIiENSt8__detail9_IdentityESt8equal_toIiESt4hashIiENS1_18_Mod_range_hashingENS1_20_Default_ranged_hashENS1_20_Prime_rehash_policyENS1_17_Hashtable_traitsILb0ELb1ELb1EEEE5clearEv
FNDA:1,_ZNSt10_HashtableIiiSaIiENSt8__detail9_IdentityESt8equal_toIiESt4hashIiENS1_18_Mod_range_hashingENS1_20_Default_ranged_hashENS1_20_Prime_rehash_policyENS1_17_Hashtable_traitsILb0ELb1ELb1EEEE9_M_rehashEmRKm
FNDA:1,_ZNSt10_HashtableIiiSaIiENSt8__detail9_IdentityESt8equal_toIiESt4hashIiENS1_18_Mod_range_hashingENS1_20_Default_ranged_hashENS1_20_Prime_rehash_policyENS1_17_Hashtable_traitsILb0ELb1ELb1EEEE13_M_rehash_auxEmSt17integral_constantIbLb1EE
FNDA:1,_ZNSt10_HashtableIiiSaIiENSt8__detail9_IdentityESt8equal_toIiESt4hashIiENS1_18_Mod_range_hashingENS1_20_Default_ranged_hashENS1_20_Prime_rehash_policyENS1_17_Hashtable_traitsILb0ELb1ELb1EEEE12_Scoped_nodeC2EPNS1_10_Hash_nodeIiLb0EEEPNS1_16_Hashtable_allocISaISF_EEE
FNDA:1,_ZNSt10_HashtableIiiSaIiENSt8__detail9_IdentityESt8equal_toIiESt4hashIiENS1_18_Mod_range_hashingENS1_20_Default_ranged_hashENS1_20_Prime_rehash_policyENS1_17_Hashtable_traitsILb0ELb1ELb1EEEE12_Scoped_nodeD2Ev
FNDA:3,_ZNKSt10_HashtableIiiSaIiENSt8__detail9_IdentityESt8equal_toIiESt4hashIiENS1_18_Mod_range_hashingENS1_20_Default_ranged_hashENS1_20_Prime_rehash_policyENS1_17_Hashtable_traitsILb0ELb1ELb1EEEE21_M_uses_single_bucketEPPNS1_15_Hash_node_baseE
FNDA:4,_ZNSt10_HashtableIiiSaIiENSt8__detail9_IdentityESt8equal_toIiESt4hashIiENS1_18_Mod_range_hashingENS1_20_Default_ranged_hashENS1_20_Prime_rehash_policyENS1_17_Hashtable_traitsILb0ELb1ELb1EEEE22__small_size_thresholdEv
FNDA:1,_ZNSt10_HashtableIiiSaIiENSt8__detail9_IdentityESt8equal_toIiESt4hashIiENS1_18_Mod_range_hashingENS1_20_Default_ranged_hashENS1_20_Prime_rehash_policyENS1_17_Hashtable_traitsILb0ELb1ELb1EEEE19_M_allocate_bucketsEm
FNDA:3,_ZNSt10_HashtableIiiSaIiENSt8__detail9_IdentityESt8equal_toIiESt4hashIiENS1_18_Mod_range_hashingENS1_20_Default_ranged_hashENS1_20_Prime_rehash_policyENS1_17_Hashtable_traitsILb0ELb1ELb1EEEE21_M_deallocate_bucketsEPPNS1_15_Hash_node_baseEm
FNDA:3,_ZNSt10_HashtableIiiSaIiENSt8__detail9_IdentityESt8equal_toIiESt4hashIiENS1_18_Mod_range_hashingENS1_20_Default_ranged_hashENS1_20_Prime_rehash_policyENS1_17_Hashtable_traitsILb0ELb1ELb1EEEE21_M_deallocate_bucketsEv
FNDA:5,_ZNKSt10_HashtableIiiSaIiENSt8__detail9_IdentityESt8equal_toIiESt4hashIiENS1_18_Mod_range_hashingENS1_20_Default_ranged_hashENS1_20_Prime_rehash_policyENS1_17_Hashtable_traitsILb0ELb1ELb1EEEE8_M_beginEv
FNDA:2,_ZNSt10_HashtableIiiSaIiENSt8__detail9_IdentityESt8equal_toIiESt4hashIiENS1_18_Mod_range_hashingENS1_20_Default_ranged_hashENS1_20_Prime_rehash_policyENS1_17_Hashtable_traitsILb0ELb1ELb1EEEEC2Ev
FNDA:2,_ZNSt10_HashtableIiiSaIiENSt8__detail9_IdentityESt8equal_toIiESt4hashIiENS1_18_Mod_range_hashingENS1_20_Default_ranged_hashENS1_20_Prime_rehash_policyENS1_17_Hashtable_traitsILb0ELb1ELb1EEEE5beginEv
FNDA:5,_ZNSt10_HashtableIiiSaIiENSt8__detail9_IdentityESt8equal_toIiESt4hashIiENS1_18_Mod_range_hashingENS1_20_Default_ranged_hashENS1_20_Prime_rehash_policyENS1_17_Hashtable_traitsILb0ELb1ELb1EEEE3endEv
FNDA:4,_ZNKSt10_HashtableIiiSaIiENSt8__detail9_IdentityESt8equal_toIiESt4hashIiENS1_18_Mod_range_hashingENS1_20_Default_ranged_hashENS1_20_Prime_rehash_policyENS1_17_Hashtable_traitsILb0ELb1ELb1EEEE4sizeEv
FNDA:0,_ZNKSt10_HashtableIiiSaIiENSt8__detail9_IdentityESt8equal_toIiESt4hashIiENS1_18_Mod_range_hashingENS1_20_Default_ranged_hashENS1_20_Prime_rehash_policyENS1_17_Hashtable_traitsILb0ELb1ELb1EEEE15_M_bucket_indexERKNS1_16_Hash_node_valueIiLb0EEE
FNDA:3,_ZNKSt10_HashtableIiiSaIiENSt8__detail9_IdentityESt8equal_toIiESt4hashIiENS1_18_Mod_range_hashingENS1_20_Default_ranged_hashENS1_20_Prime_rehash_policyENS1_17_Hashtable_traitsILb0ELb1ELb1EEEE15_M_bucket_indexEm
FNDA:1,_ZNKSt10_HashtableIiiSaIiENSt8__detail9_IdentityESt8equal_toIiESt4hashIiENS1_18_Mod_range_hashingENS1_20_Default_ranged_hashENS1_20_Prime_rehash_policyENS1_17_Hashtable_traitsILb0ELb1ELb1EEEE12_M_find_nodeEmRKim
FNDA:0,_ZNKSt10_HashtableIiiSaIiENSt8__detail9_IdentityESt8equal_toIiESt4hashIiENS1_18_Mod_range_hashingENS1_20_Default_ranged_hashENS1_20_Prime_rehash_policyENS1_17_Hashtable_traitsILb0ELb1ELb1EEEE15_M_find_node_trIiEEPNS1_10_Hash_nodeIiLb0EEEmRKT_m
FNDA:1,_ZNSt10_HashtableIiiSaIiENSt8__detail9_IdentityESt8equal_toIiESt4hashIiENS1_18_Mod_range_hashingENS1_20_Default_ranged_hashENS1_20_Prime_rehash_policyENS1_17_Hashtable_traitsILb0ELb1ELb1EEEE14_S_forward_keyERKi
FNDA:1,_ZNSt10_HashtableIiiSaIiENSt8__detail9_IdentityESt8equal_toIiESt4hashIiENS1_18_Mod_range_hashingENS1_20_Default_ranged_hashENS1_20_Prime_rehash_policyENS1_17_Hashtable_traitsILb0ELb1ELb1EEEE20_M_insert_unique_auxIRKiNS1_10_AllocNodeISaINS1_10_Hash_nodeIiLb0EEEEEEEESt4pairINS1_14_Node_iteratorIiLb1ELb0EEEbEOT_RKT0_
FNDA:1,_ZNSt10_HashtableIiiSaIiENSt8__detail9_IdentityESt8equal_toIiESt4hashIiENS1_18_Mod_range_hashingENS1_20_Default_ranged_hashENS1_20_Prime_rehash_policyENS1_17_Hashtable_traitsILb0ELb1ELb1EEEE9_M_insertIRKiNS1_10_AllocNodeISaINS1_10_Hash_nodeIiLb0EEEEEEEESt4pairINS1_14_Node_iteratorIiLb1ELb0EEEbEOT_RKT0_St17integral_constantIbLb1EE
FNF:29
FNH:26
DA:300,1
DA:301,1
DA:311,1
DA:416,3
DA:417,3
DA:424,4
DA:427,4
DA:434,1
DA:436,1
DA:438,0
DA:439,0
DA:442,1
DA:446,3
DA:448,3
DA:449,2
DA:451,1
DA:455,3
DA:456,3
DA:464,5
DA:465,5
DA:530,2
DA:623,2
DA:624,2
DA:631,5
DA:632,5
DA:647,4
DA:648,4
DA:792,0
DA:793,0
DA:796,3
DA:797,3
DA:812,1
DA:815,1
DA:816,1
DA:817,1
DA:818,0
DA:823,0
DA:826,0
DA:827,0
DA:828,0
DA:829,0
DA:893,1
DA:894,1
DA:902,1
DA:904,2
DA:905,2
DA:906,2
DA:911,1
DA:916,2
DA:917,2
DA:1595,2
DA:1608,2
DA:1609,2
DA:1610,2
DA:1664,2
DA:1669,2
DA:1671,1
DA:1672,0
DA:1673,0
DA:1674,1
DA:1677,1
DA:1678,1
DA:1679,1
DA:1948,1
DA:1954,1
DA:1955,1
DA:1956,0
DA:1958,1
DA:1959,0
DA:1961,1
DA:1962,1
DA:1964,0
DA:1965,0
DA:1966,0
DA:1969,0
DA:1978,0
DA:1984,0
DA:1985,0
DA:1986,0
DA:1988,0
DA:1989,0
DA:1991,0
DA:1992,0
DA:1994,0
DA:1995,0
DA:1996,0
DA:1999,0
DA:2007,1
DA:2011,1
DA:2015,0
DA:2016,0
DA:2023,1
DA:2024,1
DA:2026,1
DA:2029,0
DA:2031,1
DA:2033,1
DA:2166,1
DA:2172,1
DA:2174,1
DA:2177,1
DA:2179,1
DA:2180,1
DA:2183,1
DA:2186,1
DA:2187,1
DA:2188,1
DA:2253,1
DA:2259,1
DA:2260,1
DA:2261,0
DA:2262,0
DA:2264,1
DA:2265,1
DA:2267,1
DA:2268,0
DA:2269,0
DA:2271,1
DA:2278,1
DA:2279,1
DA:2280,1
DA:2281,1
DA:2520,2
DA:2524,2
DA:2525,2
DA:2526,2
DA:2527,2
DA:2528,2
DA:2529,2
DA:2559,1
DA:2565,1
DA:2567,0
DA:2571,0
DA:2572,0
DA:2574,1
DA:2582,1
DA:2586,1
DA:2587,1
DA:2588,1
DA:2589,1
DA:2590,1
DA:2592,0
DA:2594,0
DA:2595,0
DA:2597,0
DA:2598,0
DA:2599,0
DA:2600,0
DA:2601,0
DA:2602,0
DA:2606,0
DA:2607,0
DA:2610,0
DA:2613,1
DA:2614,1
DA:2615,1
DA:2616,1
LF:157
LH:105
end_of_record
TN:
SF:/usr/include/c++/13/bits/hashtable_policy.h
FN:1218,1218,_ZNSt8__detail21_Hashtable_ebo_helperILi0ESaINS_10_Hash_nodeIiLb0EEEELb1EEC2Ev
FN:1218,1218,_ZNSt8__detail21_Hashtable_ebo_helperILi0ESt8equal_toIiELb1EEC2Ev
FN:1218,1218,_ZNSt8__detail21_Hashtable_ebo_helperILi1ESt4hashIiELb1EEC2Ev
FN:1225,1225,_ZNKSt8__detail21_Hashtable_ebo_helperILi0ESt8equal_toIiELb1EE7_M_cgetEv
FN:1225,1225,_ZNKSt8__detail21_Hashtable_ebo_helperILi1ESt4hashIiELb1EE7_M_cgetEv
FN:1226,1226,_ZNSt8__detail21_Hashtable_ebo_helperILi0ESaINS_10_Hash_nodeIiLb0EEEELb1EE6_M_getEv
FN:124,125,_ZNKSt8__detail19_ConvertToValueTypeINS_9_IdentityEiEclIRKiEEOT_S7_
FN:1301,1301,_ZNSt8__detail15_Hash_code_baseIiiNS_9_IdentityESt4hashIiENS_18_Mod_range_hashingENS_20_Default_ranged_hashELb0EEC2Ev
FN:1306,1311,_ZNKSt8__detail15_Hash_code_baseIiiNS_9_IdentityESt4hashIiENS_18_Mod_range_hashingENS_20_Default_ranged_hashELb0EE12_M_hash_codeERKi
FN:1315,1320,_ZNKSt8__detail15_Hash_code_baseIiiNS_9_IdentityESt4hashIiENS_18_Mod_range_hashingENS_20_Default_ranged_hashELb0EE15_M_hash_code_trIiEEmRKT_
FN:1331,1332,_ZNKSt8__detail15_Hash_code_baseIiiNS_9_IdentityESt4hashIiENS_18_Mod_range_hashingENS_20_Default_ranged_hashELb0EE15_M_bucket_indexEmm
FN:1335,1343,_ZNKSt8__detail15_Hash_code_baseIiiNS_9_IdentityESt4hashIiENS_18_Mod_range_hashingENS_20_Default_ranged_hashELb0EE15_M_bucket_indexERKNS_16_Hash_node_valueIiLb0EEEm
FN:1353,1354,_ZNKSt8__detail15_Hash_code_baseIiiNS_9_IdentityESt4hashIiENS_18_Mod_range_hashingENS_20_Default_ranged_hashELb0EE13_M_store_codeERNS_21_Hash_node_code_cacheILb0EEEm
FN:1375,1375,_ZNKSt8__detail15_Hash_code_baseIiiNS_9_IdentityESt4hashIiENS_18_Mod_range_hashingENS_20_Default_ranged_hashELb0EE7_M_hashEv
FN:1683,1684,_ZNSt8__detail15_Hashtable_baseIiiNS_9_IdentityESt8equal_toIiESt4hashIiENS_18_Mod_range_hashingENS_20_Default_ranged_hashENS_17_Hashtable_traitsILb0ELb1ELb1EEEE9_S_equalsEmRKNS_21_Hash_node_code_cacheILb0EEE
FN:1701,1701,_ZNSt8__detail15_Hashtable_baseIiiNS_9_IdentityESt8equal_toIiESt4hashIiENS_18_Mod_range_hashingENS_20_Default_ranged_hashENS_17_Hashtable_traitsILb0ELb1ELb1EEEEC2Ev
FN:1708,1716,_ZNKSt8__detail15_Hashtable_baseIiiNS_9_IdentityESt8equal_toIiESt4hashIiENS_18_Mod_range_hashingENS_20_Default_ranged_hashENS_17_Hashtable_traitsILb0ELb1ELb1EEEE13_M_key_equalsERKiRKNS_16_Hash_node_valueIiLb0EEE
FN:171,173,_ZNSt8__detail12_NodeBuilderINS_9_IdentityEE8_S_buildIRKiS5_NS_10_AllocNodeISaINS_10_Hash_nodeIiLb0EEEEEEEEPNT1_11__node_typeEOT_OT0_RKSB_
FN:1720,1729,_ZNKSt8__detail15_Hashtable_baseIiiNS_9_IdentityESt8equal_toIiESt4hashIiENS_18_Mod_range_hashingENS_20_Default_ranged_hashENS_17_Hashtable_traitsILb0ELb1ELb1EEEE16_M_key_equals_trIiEEbRKT_RKNS_16_Hash_node_valueIiLb0EEE
FN:1732,1734,_ZNKSt8__detail15_Hashtable_baseIiiNS_9_IdentityESt8equal_toIiESt4hashIiENS_18_Mod_range_hashingENS_20_Default_ranged_hashENS_17_Hashtable_traitsILb0ELb1ELb1EEEE9_M_equalsERKimRKNS_16_Hash_node_valueIiLb0EEE
FN:1738,1741,_ZNKSt8__detail15_Hashtable_baseIiiNS_9_IdentityESt8equal_toIiESt4hashIiENS_18_Mod_range_hashingENS_20_Default_ranged_hashENS_17_Hashtable_traitsILb0ELb1ELb1EEEE12_M_equals_trIiEEbRKT_mRKNS_16_Hash_node_valueIiLb0EEE
FN:1760,1760,_ZNKSt8__detail15_Hashtable_baseIiiNS_9_IdentityESt8equal_toIiESt4hashIiENS_18_Mod_range_hashingENS_20_Default_ranged_hashENS_17_Hashtable_traitsILb0ELb1ELb1EEEE5_M_eqEv
FN:1940,1940,_ZNSt8__detail16_Hashtable_allocISaINS_10_Hash_nodeIiLb0EEEEEC2Ev
FN:1950,1951,_ZNSt8__detail16_Hashtable_allocISaINS_10_Hash_nodeIiLb0EEEEE17_M_node_allocatorEv
FN:1987,2005,_ZNSt8__detail16_Hashtable_allocISaINS_10_Hash_nodeIiLb0EEEEE16_M_allocate_nodeIJRKiEEEPS2_DpOT_
FN:2009,2013,_ZNSt8__detail16_Hashtable_allocISaINS_10_Hash_nodeIiLb0EEEEE18_M_deallocate_nodeEPS2_
FN:2017,2023,_ZNSt8__detail16_Hashtable_allocISaINS_10_Hash_nodeIiLb0EEEEE22_M_deallocate_node_ptrEPS2_
FN:2027,2035,_ZNSt8__detail16_Hashtable_allocISaINS_10_Hash_nodeIiLb0EEEEE19_M_deallocate_nodesEPS2_
FN:2039,2048,_ZNSt8__detail16_Hashtable_allocISaINS_10_Hash_nodeIiLb0EEEEE19_M_allocate_bucketsEm
FN:2052,2060,_ZNSt8__detail16_Hashtable_allocISaINS_10_Hash_nodeIiLb0EEEEE21_M_deallocate_bucketsEPPNS_15_Hash_node_baseEm
FN:242,243,_ZNSt8__detail10_AllocNodeISaINS_10_Hash_nodeIiLb0EEEEEC2ERNS_16_Hashtable_allocIS3_EE
FN:247,248,_ZNKSt8__detail10_AllocNodeISaINS_10_Hash_nodeIiLb0EEEEEclIJRKiEEEPS2_DpOT_
FN:297,298,_ZNSt8__detail22_Hashtable_hash_traitsISt4hashIiEE22__small_size_thresholdEv
FN:313,313,_ZNSt8__detail15_Hash_node_baseC2Ev
FN:380,381,_ZNKSt8__detail10_Hash_nodeIiLb0EE7_M_nextEv
FN:393,394,_ZNSt8__detail19_Node_iterator_baseIiLb0EEC2EPNS_10_Hash_nodeIiLb0EEE
FN:397,398,_ZNSt8__detail19_Node_iterator_baseIiLb0EE7_M_incrEv
FN:407,409,_ZNSt8__detailneERKNS_19_Node_iterator_baseIiLb0EEES3_
FN:436,437,_ZNSt8__detail14_Node_iteratorIiLb1ELb0EEC2EPNS_10_Hash_nodeIiLb0EEE
FN:448,452,_ZNSt8__detail14_Node_iteratorIiLb1ELb0EEppEv
FN:526,528,_ZNKSt8__detail18_Mod_range_hashingclEmm
FN:544,545,_ZNSt8__detail20_Prime_rehash_policyC2Ef
FN:571,572,_ZNKSt8__detail20_Prime_rehash_policy8_M_stateEv
FN:579,580,_ZNSt8__detail20_Prime_rehash_policy8_M_resetEm
FN:89,90,_ZNKSt8__detail9_IdentityclIRKiEEOT_S5_
FN:903,904,_ZNSt8__detail12_Insert_baseIiiSaIiENS_9_IdentityESt8equal_toIiESt4hashIiENS_18_Mod_range_hashingENS_20_Default_ranged_hashENS_20_Prime_rehash_policyENS_17_Hashtable_traitsILb0ELb1ELb1EEEE20_M_conjure_hashtableEv
FN:929,934,_ZNSt8__detail12_Insert_baseIiiSaIiENS_9_IdentityESt8equal_toIiESt4hashIiENS_18_Mod_range_hashingENS_20_Default_ranged_hashENS_20_Prime_rehash_policyENS_17_Hashtable_traitsILb0ELb1ELb1EEEE6insertERKi
FNDA:2,_ZNSt8__detail21_Hashtable_ebo_helperILi0ESaINS_10_Hash_nodeIiLb0EEEELb1EEC2Ev
FNDA:2,_ZNSt8__detail21_Hashtable_ebo_helperILi0ESt8equal_toIiELb1EEC2Ev
FNDA:2,_ZNSt8__detail21_Hashtable_ebo_helperILi1ESt4hashIiELb1EEC2Ev
FNDA:1,_ZNKSt8__detail21_Hashtable_ebo_helperILi0ESt8equal_toIiELb1EE7_M_cgetEv
FNDA:2,_ZNKSt8__detail21_Hashtable_ebo_helperILi1ESt4hashIiELb1EE7_M_cgetEv
FNDA:6,_ZNSt8__detail21_Hashtable_ebo_helperILi0ESaINS_10_Hash_nodeIiLb0EEEELb1EE6_M_getEv
FNDA:1,_ZNKSt8__detail19_ConvertToValueTypeINS_9_IdentityEiEclIRKiEEOT_S7_
FNDA:2,_ZNSt8__detail15_Hash_code_baseIiiNS_9_IdentityESt4hashIiENS_18_Mod_range_hashingENS_20_Default_ranged_hashELb0EEC2Ev
FNDA:1,_ZNKSt8__detail15_Hash_code_baseIiiNS_9_IdentityESt4hashIiENS_18_Mod_range_hashingENS_20_Default_ranged_hashELb0EE12_M_hash_codeERKi
FNDA:1,_ZNKSt8__detail15_Hash_code_baseIiiNS_9_IdentityESt4hashIiENS_18_Mod_range_hashingENS_20_Default_ranged_hashELb0EE15_M_hash_code_trIiEEmRKT_
FNDA:3,_ZNKSt8__detail15_Hash_code_baseIiiNS_9_IdentityESt4hashIiENS_18_Mod_range_hashingENS_20_Default_ranged_hashELb0EE15_M_bucket_indexEmm
FNDA:0,_ZNKSt8__detail15_Hash_code_baseIiiNS_9_IdentityESt4hashIiENS_18_Mod_range_hashingENS_20_Default_ranged_hashELb0EE15_M_bucket_indexERKNS_16_Hash_node_valueIiLb0EEEm
FNDA:1,_ZNKSt8__detail15_Hash_code_baseIiiNS_9_IdentityESt4hashIiENS_18_Mod_range_hashingENS_20_Default_ranged_hashELb0EE13_M_store_codeERNS_21_Hash_node_code_cacheILb0EEEm
FNDA:2,_ZNKSt8__detail15_Hash_code_baseIiiNS_9_IdentityESt4hashIiENS_18_Mod_range_hashingENS_20_Default_ranged_hashELb0EE7_M_hashEv
FNDA:1,_ZNSt8__detail15_Hashtable_baseIiiNS_9_IdentityESt8equal_toIiESt4hashIiENS_18_Mod_range_hashingENS_20_Default_ranged_hashENS_17_Hashtable_traitsILb0ELb1ELb1EEEE9_S_equalsEmRKNS_21_Hash_node_code_cacheILb0EEE
FNDA:2,_ZNSt8__detail15_Hashtable_baseIiiNS_9_IdentityESt8equal_toIiESt4hashIiENS_18_Mod_range_hashingENS_20_Default_ranged_hashENS_17_Hashtable_traitsILb0ELb1ELb1EEEEC2Ev
FNDA:1,_ZNKSt8__detail15_Hashtable_baseIiiNS_9_IdentityESt8equal_toIiESt4hashIiENS_18_Mod_range_hashingENS_20_Default_ranged_hashENS_17_Hashtable_traitsILb0ELb1ELb1EEEE13_M_key_equalsERKiRKNS_16_Hash_node_valueIiLb0EEE
FNDA:1,_ZNSt8__detail12_NodeBuilderINS_9_IdentityEE8_S_buildIRKiS5_NS_10_AllocNodeISaINS_10_Hash_nodeIiLb0EEEEEEEEPNT1_11__node_typeEOT_OT0_RKSB_
FNDA:0,_ZNKSt8__detail15_Hashtable_baseIiiNS_9_IdentityESt8equal_toIiESt4hashIiENS_18_Mod_range_hashingENS_20_Default_ranged_hashENS_17_Hashtable_traitsILb0ELb1ELb1EEEE16_M_key_equals_trIiEEbRKT_RKNS_16_Hash_node_valueIiLb0EEE
FNDA:1,_ZNKSt8__detail15_Hashtable_baseIiiNS_9_IdentityESt8equal_toIiESt4hashIiENS_18_Mod_range_hashingENS_20_Default_ranged_hashENS_17_Hashtable_traitsILb0ELb1ELb1EEEE9_M_equalsERKimRKNS_16_Hash_node_valueIiLb0EEE
FNDA:0,_ZNKSt8__detail15_Hashtable_baseIiiNS_9_IdentityESt8equal_toIiESt4hashIiENS_18_Mod_range_hashingENS_20_Default_ranged_hashENS_17_Hashtable_traitsILb0ELb1ELb1EEEE12_M_equals_trIiEEbRKT_mRKNS_16_Hash_node_valueIiLb0EEE
FNDA:1,_ZNKSt8__detail15_Hashtable_baseIiiNS_9_IdentityESt8equal_toIiESt4hashIiENS_18_Mod_range_hashingENS_20_Default_ranged_hashENS_17_Hashtable_traitsILb0ELb1ELb1EEEE5_M_eqEv
FNDA:2,_ZNSt8__detail16_Hashtable_allocISaINS_10_Hash_nodeIiLb0EEEEEC2Ev
FNDA:6,_ZNSt8__detail16_Hashtable_allocISaINS_10_Hash_nodeIiLb0EEEEE17_M_node_allocatorEv
FNDA:1,_ZNSt8__detail16_Hashtable_allocISaINS_10_Hash_nodeIiLb0EEEEE16_M_allocate_nodeIJRKiEEEPS2_DpOT_
FNDA:1,_ZNSt8__detail16_Hashtable_allocISaINS_10_Hash_nodeIiLb0EEEEE18_M_deallocate_nodeEPS2_
FNDA:1,_ZNSt8__detail16_Hashtable_allocISaINS_10_Hash_nodeIiLb0EEEEE22_M_deallocate_node_ptrEPS2_
FNDA:2,_ZNSt8__detail16_Hashtable_allocISaINS_10_Hash_nodeIiLb0EEEEE19_M_deallocate_nodesEPS2_
FNDA:1,_ZNSt8__detail16_Hashtable_allocISaINS_10_Hash_nodeIiLb0EEEEE19_M_allocate_bucketsEm
FNDA:1,_ZNSt8__detail16_Hashtable_allocISaINS_10_Hash_nodeIiLb0EEEEE21_M_deallocate_bucketsEPPNS_15_Hash_node_baseEm
FNDA:1,_ZNSt8__detail10_AllocNodeISaINS_10_Hash_nodeIiLb0EEEEEC2ERNS_16_Hashtable_allocIS3_EE
FNDA:1,_ZNKSt8__detail10_AllocNodeISaINS_10_Hash_nodeIiLb0EEEEEclIJRKiEEEPS2_DpOT_
FNDA:4,_ZNSt8__detail22_Hashtable_hash_traitsISt4hashIiEE22__small_size_thresholdEv
FNDA:3,_ZNSt8__detail15_Hash_node_baseC2Ev
FNDA:1,_ZNKSt8__detail10_Hash_nodeIiLb0EE7_M_nextEv
FNDA:9,_ZNSt8__detail19_Node_iterator_baseIiLb0EEC2EPNS_10_Hash_nodeIiLb0EEE
FNDA:0,_ZNSt8__detail19_Node_iterator_baseIiLb0EE7_M_incrEv
FNDA:4,_ZNSt8__detailneERKNS_19_Node_iterator_baseIiLb0EEES3_
FNDA:9,_ZNSt8__detail14_Node_iteratorIiLb1ELb0EEC2EPNS_10_Hash_nodeIiLb0EEE
FNDA:0,_ZNSt8__detail14_Node_iteratorIiLb1ELb0EEppEv
FNDA:3,_ZNKSt8__detail18_Mod_range_hashingclEmm
FNDA:2,_ZNSt8__detail20_Prime_rehash_policyC2Ef
FNDA:1,_ZNKSt8__detail20_Prime_rehash_policy8_M_stateEv
FNDA:0,_ZNSt8__detail20_Prime_rehash_policy8_M_resetEm
FNDA:2,_ZNKSt8__detail9_IdentityclIRKiEEOT_S5_
FNDA:1,_ZNSt8__detail12_Insert_baseIiiSaIiENS_9_IdentityESt8equal_toIiESt4hashIiENS_18_Mod_range_hashingENS_20_Default_ranged_hashENS_20_Prime_rehash_policyENS_17_Hashtable_traitsILb0ELb1ELb1EEEE20_M_conjure_hashtableEv
FNDA:1,_ZNSt8__detail12_Insert_baseIiiSaIiENS_9_IdentityESt8equal_toIiESt4hashIiENS_18_Mod_range_hashingENS_20_Default_ranged_hashENS_20_Prime_rehash_policyENS_17_Hashtable_traitsILb0ELb1ELb1EEEE6insertERKi
FNF:47
FNH:41
DA:89,2
DA:90,2
DA:124,1
DA:125,1
DA:171,1
DA:173,1
DA:242,1
DA:243,1
DA:247,1
DA:248,1
DA:297,4
DA:298,4
DA:313,3
DA:333,2
DA:338,1
DA:348,1
DA:380,1
DA:381,1
DA:393,9
DA:394,9
DA:397,0
DA:398,0
DA:407,4
DA:409,4
DA:436,9
DA:437,9
DA:448,0
DA:450,0
DA:451,0
DA:526,3
DA:528,3
DA:544,2
DA:545,2
DA:571,1
DA:572,1
DA:579,0
DA:580,0
DA:903,1
DA:904,1
DA:929,1
DA:931,1
DA:932,1
DA:933,2
DA:1218,6
DA:1225,3
DA:1226,6
DA:1301,2
DA:1306,1
DA:1310,1
DA:1315,1
DA:1319,1
DA:1331,3
DA:1332,3
DA:1335,0
DA:1341,0
DA:1342,0
DA:1353,1
DA:1354,1
DA:1375,2
DA:1683,1
DA:1684,1
DA:1701,2
DA:1708,1
DA:1715,2
DA:1720,0
DA:1728,0
DA:1732,1
DA:1734,1
DA:1738,0
DA:1741,0
DA:1760,1
DA:1940,2
DA:1950,6
DA:1951,6
DA:1987,1
DA:1990,1
DA:1991,1
DA:1994,1
DA:1995,2
DA:1998,1
DA:2000,0
DA:2002,0
DA:2003,0
DA:2009,1
DA:2011,2
DA:2012,1
DA:2013,1
DA:2017,1
DA:2020,1
DA:2021,1
DA:2022,1
DA:2023,1
DA:2027,2
DA:2029,3
DA:2031,1
DA:2032,1
DA:2033,1
DA:2035,2
DA:2039,1
DA:2042,1
DA:2044,1
DA:2045,1
DA:2046,1
DA:2047,2
DA:2052,1
DA:2057,1
DA:2058,1
DA:2060,1
LF:108
LH:91
end_of_record
TN:
SF:/usr/include/c++/13/bits/invoke.h
FN:104,117,_ZSt10__invoke_rIvRZ20handleClientPipelineiEUlvE0_JEENSt9enable_ifIX16is_invocable_r_vIT_T0_DpT1_EES3_E4typeEOS4_DpOS5_
FN:104,117,_ZSt10__invoke_rIvRZ20handleClientPipelineiEUlvE1_JEENSt9enable_ifIX16is_invocable_r_vIT_T0_DpT1_EES3_E4typeEOS4_DpOS5_
FN:104,117,_ZSt10__invoke_rIvRZ20handleClientPipelineiEUlvE2_JEENSt9enable_ifIX16is_invocable_r_vIT_T0_DpT1_EES3_E4typeEOS4_DpOS5_
FN:104,117,_ZSt10__invoke_rIvRZ20handleClientPipelineiEUlvE3_JEENSt9enable_ifIX16is_invocable_r_vIT_T0_DpT1_EES3_E4typeEOS4_DpOS5_
FN:104,117,_ZSt10__invoke_rIvRZ20handleClientPipelineiEUlvE4_JEENSt9enable_ifIX16is_invocable_r_vIT_T0_DpT1_EES3_E4typeEOS4_DpOS5_
FN:104,117,_ZSt10__invoke_rIvRZ20handleClientPipelineiEUlvE5_JEENSt9enable_ifIX16is_invocable_r_vIT_T0_DpT1_EES3_E4typeEOS4_DpOS5_
FN:104,117,_ZSt10__invoke_rIvRZ20handleClientPipelineiEUlvE6_JEENSt9enable_ifIX16is_invocable_r_vIT_T0_DpT1_EES3_E4typeEOS4_DpOS5_
FN:104,117,_ZSt10__invoke_rIvRZ20handleClientPipelineiEUlvE_JEENSt9enable_ifIX16is_invocable_r_vIT_T0_DpT1_EES3_E4typeEOS4_DpOS5_
FN:104,117,_ZSt10__invoke_rIvRZ7boruvkaRKSt6vectorISt5tupleIJiiiiEESaIS2_EEiEUliiE_JiiEENSt9enable_ifIX16is_invocable_r_vIT_T0_DpT1_EESA_E4typeEOSB_DpOSC_
FN:60,61,_ZSt13__invoke_implIvRZ20handleClientPipelineiEUlvE0_JEET_St14__invoke_otherOT0_DpOT1_
FN:60,61,_ZSt13__invoke_implIvRZ20handleClientPipelineiEUlvE1_JEET_St14__invoke_otherOT0_DpOT1_
FN:60,61,_ZSt13__invoke_implIvRZ20handleClientPipelineiEUlvE2_JEET_St14__invoke_otherOT0_DpOT1_
FN:60,61,_ZSt13__invoke_implIvRZ20handleClientPipelineiEUlvE3_JEET_St14__invoke_otherOT0_DpOT1_
FN:60,61,_ZSt13__invoke_implIvRZ20handleClientPipelineiEUlvE4_JEET_St14__invoke_otherOT0_DpOT1_
FN:60,61,_ZSt13__invoke_implIvRZ20handleClientPipelineiEUlvE5_JEET_St14__invoke_otherOT0_DpOT1_
FN:60,61,_ZSt13__invoke_implIvRZ20handleClientPipelineiEUlvE6_JEET_St14__invoke_otherOT0_DpOT1_
FN:60,61,_ZSt13__invoke_implIvRZ20handleClientPipelineiEUlvE_JEET_St14__invoke_otherOT0_DpOT1_
FN:60,61,_ZSt13__invoke_implIvRZ7boruvkaRKSt6vectorISt5tupleIJiiiiEESaIS2_EEiEUliiE_JiiEET_St14__invoke_otherOT0_DpOT1_
FN:60,61,_ZSt13__invoke_implIvZN12ActiveObjectC4EvEUlvE_JEET_St14__invoke_otherOT0_DpOT1_
FN:90,98,_ZSt8__invokeIZN12ActiveObjectC4EvEUlvE_JEENSt15__invoke_resultIT_JDpT0_EE4typeEOS3_DpOS4_
FNDA:1,_ZSt10__invoke_rIvRZ20handleClientPipelineiEUlvE0_JEENSt9enable_ifIX16is_invocable_r_vIT_T0_DpT1_EES3_E4typeEOS4_DpOS5_
FNDA:1,_ZSt10__invoke_rIvRZ20handleClientPipelineiEUlvE1_JEENSt9enable_ifIX16is_invocable_r_vIT_T0_DpT1_EES3_E4typeEOS4_DpOS5_
FNDA:2,_ZSt10__invoke_rIvRZ20handleClientPipelineiEUlvE2_JEENSt9enable_ifIX16is_invocable_r_vIT_T0_DpT1_EES3_E4typeEOS4_DpOS5_
FNDA:1,_ZSt10__invoke_rIvRZ20handleClientPipelineiEUlvE3_JEENSt9enable_ifIX16is_invocable_r_vIT_T0_DpT1_EES3_E4typeEOS4_DpOS5_
FNDA:1,_ZSt10__invoke_rIvRZ20handleClientPipelineiEUlvE4_JEENSt9enable_ifIX16is_invocable_r_vIT_T0_DpT1_EES3_E4typeEOS4_DpOS5_
FNDA:1,_ZSt10__invoke_rIvRZ20handleClientPipelineiEUlvE5_JEENSt9enable_ifIX16is_invocable_r_vIT_T0_DpT1_EES3_E4typeEOS4_DpOS5_
FNDA:1,_ZSt10__invoke_rIvRZ20handleClientPipelineiEUlvE6_JEENSt9enable_ifIX16is_invocable_r_vIT_T0_DpT1_EES3_E4typeEOS4_DpOS5_
FNDA:1,_ZSt10__invoke_rIvRZ20handleClientPipelineiEUlvE_JEENSt9enable_ifIX16is_invocable_r_vIT_T0_DpT1_EES3_E4typeEOS4_DpOS5_
FNDA:4,_ZSt10__invoke_rIvRZ7boruvkaRKSt6vectorISt5tupleIJiiiiEESaIS2_EEiEUliiE_JiiEENSt9enable_ifIX16is_invocable_r_vIT_T0_DpT1_EESA_E4typeEOSB_DpOSC_
FNDA:1,_ZSt13__invoke_implIvRZ20handleClientPipelineiEUlvE0_JEET_St14__invoke_otherOT0_DpOT1_
FNDA:1,_ZSt13__invoke_implIvRZ20handleClientPipelineiEUlvE1_JEET_St14__invoke_otherOT0_DpOT1_
FNDA:2,_ZSt13__invoke_implIvRZ20handleClientPipelineiEUlvE2_JEET_St14__invoke_otherOT0_DpOT1_
FNDA:1,_ZSt13__invoke_implIvRZ20handleClientPipelineiEUlvE3_JEET_St14__invoke_otherOT0_DpOT1_
FNDA:1,_ZSt13__invoke_implIvRZ20handleClientPipelineiEUlvE4_JEET_St14__invoke_otherOT0_DpOT1_
FNDA:1,_ZSt13__invoke_implIvRZ20handleClientPipelineiEUlvE5_JEET_St14__invoke_otherOT0_DpOT1_
FNDA:1,_ZSt13__invoke_implIvRZ20handleClientPipelineiEUlvE6_JEET_St14__invoke_otherOT0_DpOT1_
FNDA:1,_ZSt13__invoke_implIvRZ20handleClientPipelineiEUlvE_JEET_St14__invoke_otherOT0_DpOT1_
FNDA:4,_ZSt13__invoke_implIvRZ7boruvkaRKSt6vectorISt5tupleIJiiiiEESaIS2_EEiEUliiE_JiiEET_St14__invoke_otherOT0_DpOT1_
FNDA:3,_ZSt13__invoke_implIvZN12ActiveObjectC4EvEUlvE_JEET_St14__invoke_otherOT0_DpOT1_
FNDA:3,_ZSt8__invokeIZN12ActiveObjectC4EvEUlvE_JEENSt15__invoke_resultIT_JDpT0_EE4typeEOS3_DpOS4_
FNF:20
FNH:20
DA:60,16
DA:61,16
DA:90,3
DA:96,3
DA:97,3
DA:104,13
DA:111,13
DA:117,13
LF:8
LH:8
end_of_record
TN:
SF:/usr/include/c++/13/bits/move.h
FN:138,139,_ZSt9addressofINSt8__detail10_Hash_nodeIiLb0EEEEPT_RS3_
FN:138,139,_ZSt9addressofIPNSt8__detail15_Hash_node_baseEEPT_RS3_
FN:189,200,_ZSt4swapINSt6thread2idEENSt9enable_ifIXsrSt6__and_IJSt6__not_ISt15__is_tuple_likeIT_EESt21is_move_constructibleIS6_ESt18is_move_assignableIS6_EEE5valueEvE4typeERS6_SG_
FN:189,200,_ZSt4swapIPFbRSt9_Any_dataRKS0_St18_Manager_operationEENSt9enable_ifIXsrSt6__and_IJSt6__not_ISt15__is_tuple_likeIT_EESt21is_move_constructibleISB_ESt18is_move_assignableISB_EEE5valueEvE4typeERSB_SL_
FN:189,200,_ZSt4swapIPFvRKSt9_Any_dataEENSt9enable_ifIXsrSt6__and_IJSt6__not_ISt15__is_tuple_likeIT_EESt21is_move_constructibleIS9_ESt18is_move_assignableIS9_EEE5valueEvE4typeERS9_SJ_
FN:189,200,_ZSt4swapISt9_Any_dataENSt9enable_ifIXsrSt6__and_IJSt6__not_ISt15__is_tuple_likeIT_EESt21is_move_constructibleIS5_ESt18is_move_assignableIS5_EEE5valueEvE4typeERS5_SF_
FN:51,52,_ZSt11__addressofI4EdgeEPT_RS1_
FN:51,52,_ZSt11__addressofIKSt6vectorIiSaIiEEEPT_RS4_
FN:51,52,_ZSt11__addressofIKZ20handleClientPipelineiEUlvE2_EPT_RS2_
FN:51,52,_ZSt11__addressofIKZ20handleClientPipelineiEUlvE3_EPT_RS2_
FN:51,52,_ZSt11__addressofIKZ20handleClientPipelineiEUlvE6_EPT_RS2_
FN:51,52,_ZSt11__addressofINSt8__detail10_Hash_nodeIiLb0EEEEPT_RS3_
FN:51,52,_ZSt11__addressofIPNSt8__detail15_Hash_node_baseEEPT_RS3_
FN:51,52,_ZSt11__addressofISt5mutexEPT_RS1_
FN:51,52,_ZSt11__addressofISt5tupleIJiiiiEEEPT_RS2_
FN:51,52,_ZSt11__addressofISt6vectorI4EdgeSaIS1_EEEPT_RS4_
FN:51,52,_ZSt11__addressofISt6vectorIiSaIiEEEPT_RS3_
FN:51,52,_ZSt11__addressofISt8functionIFvvEEEPT_RS3_
FN:51,52,_ZSt11__addressofImEPT_RS0_
FN:70,71,_ZSt7forwardI4EdgeEOT_RNSt16remove_referenceIS1_E4typeE
FN:70,71,_ZSt7forwardINSt8__detail14_Node_iteratorIiLb1ELb0EEEEOT_RNSt16remove_referenceIS3_E4typeE
FN:70,71,_ZSt7forwardIRKSt5tupleIJiiiiEEEOT_RNSt16remove_referenceIS4_E4typeE
FN:70,71,_ZSt7forwardIRKSt6vectorIiSaIiEEEOT_RNSt16remove_referenceIS5_E4typeE
FN:70,71,_ZSt7forwardIRKSt8functionIFvvEEEOT_RNSt16remove_referenceIS5_E4typeE
FN:70,71,_ZSt7forwardIRKZ20handleClientPipelineiEUlvE0_EOT_RNSt16remove_referenceIS3_E4typeE
FN:70,71,_ZSt7forwardIRKZ20handleClientPipelineiEUlvE1_EOT_RNSt16remove_referenceIS3_E4typeE
FN:70,71,_ZSt7forwardIRKZ20handleClientPipelineiEUlvE2_EOT_RNSt16remove_referenceIS3_E4typeE
FN:70,71,_ZSt7forwardIRKZ20handleClientPipelineiEUlvE3_EOT_RNSt16remove_referenceIS3_E4typeE
FN:70,71,_ZSt7forwardIRKZ20handleClientPipelineiEUlvE4_EOT_RNSt16remove_referenceIS3_E4typeE
FN:70,71,_ZSt7forwardIRKZ20handleClientPipelineiEUlvE5_EOT_RNSt16remove_referenceIS3_E4typeE
FN:70,71,_ZSt7forwardIRKZ20handleClientPipelineiEUlvE6_EOT_RNSt16remove_referenceIS3_E4typeE
FN:70,71,_ZSt7forwardIRKZ20handleClientPipelineiEUlvE_EOT_RNSt16remove_referenceIS3_E4typeE
FN:70,71,_ZSt7forwardIRKZ7boruvkaRKSt6vectorISt5tupleIJiiiiEESaIS2_EEiEUliiE_EOT_RNSt16remove_referenceISA_E4typeE
FN:70,71,_ZSt7forwardIRKiEOT_RNSt16remove_referenceIS2_E4typeE
FN:70,71,_ZSt7forwardIRNSt8__detail14_Node_iteratorIiLb1ELb0EEEEOT_RNSt16remove_referenceIS4_E4typeE
FN:70,71,_ZSt7forwardIRPSt13_Rb_tree_nodeI4EdgeEEOT_RNSt16remove_referenceIS5_E4typeE
FN:70,71,_ZSt7forwardIRPSt18_Rb_tree_node_baseEOT_RNSt16remove_referenceIS3_E4typeE
FN:70,71,_ZSt7forwardIRSt17_Rb_tree_iteratorI4EdgeEEOT_RNSt16remove_referenceIS4_E4typeE
FN:70,71,_ZSt7forwardIRZ20handleClientPipelineiEUlvE0_EOT_RNSt16remove_referenceIS2_E4typeE
FN:70,71,_ZSt7forwardIRZ20handleClientPipelineiEUlvE1_EOT_RNSt16remove_referenceIS2_E4typeE
FN:70,71,_ZSt7forwardIRZ20handleClientPipelineiEUlvE2_EOT_RNSt16remove_referenceIS2_E4typeE
FN:70,71,_ZSt7forwardIRZ20handleClientPipelineiEUlvE3_EOT_RNSt16remove_referenceIS2_E4typeE
FN:70,71,_ZSt7forwardIRZ20handleClientPipelineiEUlvE4_EOT_RNSt16remove_referenceIS2_E4typeE
FN:70,71,_ZSt7forwardIRZ20handleClientPipelineiEUlvE5_EOT_RNSt16remove_referenceIS2_E4typeE
FN:70,71,_ZSt7forwardIRZ20handleClientPipelineiEUlvE6_EOT_RNSt16remove_referenceIS2_E4typeE
FN:70,71,_ZSt7forwardIRZ20handleClientPipelineiEUlvE_EOT_RNSt16remove_referenceIS2_E4typeE
FN:70,71,_ZSt7forwardIRZ7boruvkaRKSt6vectorISt5tupleIJiiiiEESaIS2_EEiEUliiE_EOT_RNSt16remove_referenceIS9_E4typeE
FN:70,71,_ZSt7forwardIRbEOT_RNSt16remove_referenceIS1_E4typeE
FN:70,71,_ZSt7forwardIRiEOT_RNSt16remove_referenceIS1_E4typeE
FN:70,71,_ZSt7forwardISt17_Rb_tree_iteratorI4EdgeEEOT_RNSt16remove_referenceIS3_E4typeE
FN:70,71,_ZSt7forwardISt5tupleIJiiiiEEEOT_RNSt16remove_referenceIS2_E4typeE
FN:70,71,_ZSt7forwardISt6vectorIiSaIiEEEOT_RNSt16remove_referenceIS3_E4typeE
FN:70,71,_ZSt7forwardIZ20handleClientPipelineiEUlvE0_EOT_RNSt16remove_referenceIS1_E4typeE
FN:70,71,_ZSt7forwardIZ20handleClientPipelineiEUlvE1_EOT_RNSt16remove_referenceIS1_E4typeE
FN:70,71,_ZSt7forwardIZ20handleClientPipelineiEUlvE2_EOT_RNSt16remove_referenceIS1_E4typeE
FN:70,71,_ZSt7forwardIZ20handleClientPipelineiEUlvE3_EOT_RNSt16remove_referenceIS1_E4typeE
FN:70,71,_ZSt7forwardIZ20handleClientPipelineiEUlvE4_EOT_RNSt16remove_referenceIS1_E4typeE
FN:70,71,_ZSt7forwardIZ20handleClientPipelineiEUlvE5_EOT_RNSt16remove_referenceIS1_E4typeE
FN:70,71,_ZSt7forwardIZ20handleClientPipelineiEUlvE6_EOT_RNSt16remove_referenceIS1_E4typeE
FN:70,71,_ZSt7forwardIZ20handleClientPipelineiEUlvE_EOT_RNSt16remove_referenceIS1_E4typeE
FN:70,71,_ZSt7forwardIZ7boruvkaRKSt6vectorISt5tupleIJiiiiEESaIS2_EEiEUliiE_EOT_RNSt16remove_referenceIS8_E4typeE
FN:70,71,_ZSt7forwardIZN12ActiveObjectC4EvEUlvE_EOT_RNSt16remove_referenceIS2_E4typeE
FN:70,71,_ZSt7forwardIbEOT_RNSt16remove_referenceIS0_E4typeE
FN:70,71,_ZSt7forwardIiEOT_RNSt16remove_referenceIS0_E4typeE
FN:70,71,_ZSt7forwardImEOT_RNSt16remove_referenceIS0_E4typeE
FN:97,98,_ZSt4moveIR4EdgeEONSt16remove_referenceIT_E4typeEOS3_
FN:97,98,_ZSt4moveIRNSt12_Vector_baseIiSaIiEE12_Vector_implEEONSt16remove_referenceIT_E4typeEOS6_
FN:97,98,_ZSt4moveIRNSt6thread2idEEONSt16remove_referenceIT_E4typeEOS4_
FN:97,98,_ZSt4moveIRNSt7__cxx1112basic_stringIcSt11char_traitsIcESaIcEEEEONSt16remove_referenceIT_E4typeEOS8_
FN:97,98,_ZSt4moveIRPFbRSt9_Any_dataRKS0_St18_Manager_operationEEONSt16remove_referenceIT_E4typeEOS9_
FN:97,98,_ZSt4moveIRPFvRKSt9_Any_dataEEONSt16remove_referenceIT_E4typeEOS7_
FN:97,98,_ZSt4moveIRPNSt6thread6_StateEEONSt16remove_referenceIT_E4typeEOS5_
FN:97,98,_ZSt4moveIRPSt6vectorIiSaIiEEEONSt16remove_referenceIT_E4typeEOS6_
FN:97,98,_ZSt4moveIRSaISt5tupleIJiiiiEEEEONSt16remove_referenceIT_E4typeEOS5_
FN:97,98,_ZSt4moveIRSaISt6vectorIiSaIiEEEEONSt16remove_referenceIT_E4typeEOS6_
FN:97,98,_ZSt4moveIRSaIcEEONSt16remove_referenceIT_E4typeEOS3_
FN:97,98,_ZSt4moveIRSaIiEEONSt16remove_referenceIT_E4typeEOS3_
FN:97,98,_ZSt4moveIRSt5tupleIJZN12ActiveObjectC4EvEUlvE_EEEONSt16remove_referenceIT_E4typeEOS6_
FN:97,98,_ZSt4moveIRSt5tupleIJiiiiEEEONSt16remove_referenceIT_E4typeEOS4_
FN:97,98,_ZSt4moveIRSt6vectorIS0_IiSaIiEESaIS2_EEEONSt16remove_referenceIT_E4typeEOS7_
FN:97,98,_ZSt4moveIRSt6vectorISt5tupleIJiiiiEESaIS2_EEEONSt16remove_referenceIT_E4typeEOS7_
FN:97,98,_ZSt4moveIRSt6vectorIiSaIiEEEONSt16remove_referenceIT_E4typeEOS5_
FN:97,98,_ZSt4moveIRSt8functionIFvvEEEONSt16remove_referenceIT_E4typeEOS5_
FN:97,98,_ZSt4moveIRSt9_Any_dataEONSt16remove_referenceIT_E4typeEOS3_
FNDA:1,_ZSt9addressofINSt8__detail10_Hash_nodeIiLb0EEEEPT_RS3_
FNDA:1,_ZSt9addressofIPNSt8__detail15_Hash_node_baseEEPT_RS3_
FNDA:3,_ZSt4swapINSt6thread2idEENSt9enable_ifIXsrSt6__and_IJSt6__not_ISt15__is_tuple_likeIT_EESt21is_move_constructibleIS6_ESt18is_move_assignableIS6_EEE5valueEvE4typeERS6_SG_
FNDA:9,_ZSt4swapIPFbRSt9_Any_dataRKS0_St18_Manager_operationEENSt9enable_ifIXsrSt6__and_IJSt6__not_ISt15__is_tuple_likeIT_EESt21is_move_constructibleISB_ESt18is_move_assignableISB_EEE5valueEvE4typeERSB_SL_
FNDA:9,_ZSt4swapIPFvRKSt9_Any_dataEENSt9enable_ifIXsrSt6__and_IJSt6__not_ISt15__is_tuple_likeIT_EESt21is_move_constructibleIS9_ESt18is_move_assignableIS9_EEE5valueEvE4typeERS9_SJ_
FNDA:9,_ZSt4swapISt9_Any_dataENSt9enable_ifIXsrSt6__and_IJSt6__not_ISt15__is_tuple_likeIT_EESt21is_move_constructibleIS5_ESt18is_move_assignableIS5_EEE5valueEvE4typeERS5_SF_
FNDA:2,_ZSt11__addressofI4EdgeEPT_RS1_
FNDA:0,_ZSt11__addressofIKSt6vectorIiSaIiEEEPT_RS4_
FNDA:4,_ZSt11__addressofIKZ20handleClientPipelineiEUlvE2_EPT_RS2_
FNDA:2,_ZSt11__addressofIKZ20handleClientPipelineiEUlvE3_EPT_RS2_
FNDA:2,_ZSt11__addressofIKZ20handleClientPipelineiEUlvE6_EPT_RS2_
FNDA:1,_ZSt11__addressofINSt8__detail10_Hash_nodeIiLb0EEEEPT_RS3_
FNDA:1,_ZSt11__addressofIPNSt8__detail15_Hash_node_baseEEPT_RS3_
FNDA:24,_ZSt11__addressofISt5mutexEPT_RS1_
FNDA:0,_ZSt11__addressofISt5tupleIJiiiiEEEPT_RS2_
FNDA:4,_ZSt11__addressofISt6vectorI4EdgeSaIS1_EEEPT_RS4_
FNDA:30,_ZSt11__addressofISt6vectorIiSaIiEEEPT_RS3_
FNDA:0,_ZSt11__addressofISt8functionIFvvEEEPT_RS3_
FNDA:3,_ZSt11__addressofImEPT_RS0_
FNDA:22,_ZSt7forwardI4EdgeEOT_RNSt16remove_referenceIS1_E4typeE
FNDA:0,_ZSt7forwardINSt8__detail14_Node_iteratorIiLb1ELb0EEEEOT_RNSt16remove_referenceIS3_E4typeE
FNDA:0,_ZSt7forwardIRKSt5tupleIJiiiiEEEOT_RNSt16remove_referenceIS4_E4typeE
FNDA:13,_ZSt7forwardIRKSt6vectorIiSaIiEEEOT_RNSt16remove_referenceIS5_E4typeE
FNDA:18,_ZSt7forwardIRKSt8functionIFvvEEEOT_RNSt16remove_referenceIS5_E4typeE
FNDA:2,_ZSt7forwardIRKZ20handleClientPipelineiEUlvE0_EOT_RNSt16remove_referenceIS3_E4typeE
FNDA:2,_ZSt7forwardIRKZ20handleClientPipelineiEUlvE1_EOT_RNSt16remove_referenceIS3_E4typeE
FNDA:4,_ZSt7forwardIRKZ20handleClientPipelineiEUlvE2_EOT_RNSt16remove_referenceIS3_E4typeE
FNDA:2,_ZSt7forwardIRKZ20handleClientPipelineiEUlvE3_EOT_RNSt16remove_referenceIS3_E4typeE
FNDA:2,_ZSt7forwardIRKZ20handleClientPipelineiEUlvE4_EOT_RNSt16remove_referenceIS3_E4typeE
FNDA:2,_ZSt7forwardIRKZ20handleClientPipelineiEUlvE5_EOT_RNSt16remove_referenceIS3_E4typeE
FNDA:2,_ZSt7forwardIRKZ20handleClientPipelineiEUlvE6_EOT_RNSt16remove_referenceIS3_E4typeE
FNDA:2,_ZSt7forwardIRKZ20handleClientPipelineiEUlvE_EOT_RNSt16remove_referenceIS3_E4typeE
FNDA:0,_ZSt7forwardIRKZ7boruvkaRKSt6vectorISt5tupleIJiiiiEESaIS2_EEiEUliiE_EOT_RNSt16remove_referenceISA_E4typeE
FNDA:27,_ZSt7forwardIRKiEOT_RNSt16remove_referenceIS2_E4typeE
FNDA:1,_ZSt7forwardIRNSt8__detail14_Node_iteratorIiLb1ELb0EEEEOT_RNSt16remove_referenceIS4_E4typeE
FNDA:2,_ZSt7forwardIRPSt13_Rb_tree_nodeI4EdgeEEOT_RNSt16remove_referenceIS5_E4typeE
FNDA:2,_ZSt7forwardIRPSt18_Rb_tree_node_baseEOT_RNSt16remove_referenceIS3_E4typeE
FNDA:2,_ZSt7forwardIRSt17_Rb_tree_iteratorI4EdgeEEOT_RNSt16remove_referenceIS4_E4typeE
FNDA:2,_ZSt7forwardIRZ20handleClientPipelineiEUlvE0_EOT_RNSt16remove_referenceIS2_E4typeE
FNDA:2,_ZSt7forwardIRZ20handleClientPipelineiEUlvE1_EOT_RNSt16remove_referenceIS2_E4typeE
FNDA:4,_ZSt7forwardIRZ20handleClientPipelineiEUlvE2_EOT_RNSt16remove_referenceIS2_E4typeE
FNDA:2,_ZSt7forwardIRZ20handleClientPipelineiEUlvE3_EOT_RNSt16remove_referenceIS2_E4typeE
FNDA:2,_ZSt7forwardIRZ20handleClientPipelineiEUlvE4_EOT_RNSt16remove_referenceIS2_E4typeE
FNDA:2,_ZSt7forwardIRZ20handleClientPipelineiEUlvE5_EOT_RNSt16remove_referenceIS2_E4typeE
FNDA:2,_ZSt7forwardIRZ20handleClientPipelineiEUlvE6_EOT_RNSt16remove_referenceIS2_E4typeE
FNDA:2,_ZSt7forwardIRZ20handleClientPipelineiEUlvE_EOT_RNSt16remove_referenceIS2_E4typeE
FNDA:8,_ZSt7forwardIRZ7boruvkaRKSt6vectorISt5tupleIJiiiiEESaIS2_EEiEUliiE_EOT_RNSt16remove_referenceIS9_E4typeE
FNDA:2,_ZSt7forwardIRbEOT_RNSt16remove_referenceIS1_E4typeE
FNDA:116,_ZSt7forwardIRiEOT_RNSt16remove_referenceIS1_E4typeE
FNDA:4,_ZSt7forwardISt17_Rb_tree_iteratorI4EdgeEEOT_RNSt16remove_referenceIS3_E4typeE
FNDA:0,_ZSt7forwardISt5tupleIJiiiiEEEOT_RNSt16remove_referenceIS2_E4typeE
FNDA:0,_ZSt7forwardISt6vectorIiSaIiEEEOT_RNSt16remove_referenceIS3_E4typeE
FNDA:3,_ZSt7forwardIZ20handleClientPipelineiEUlvE0_EOT_RNSt16remove_referenceIS1_E4typeE
FNDA:3,_ZSt7forwardIZ20handleClientPipelineiEUlvE1_EOT_RNSt16remove_referenceIS1_E4typeE
FNDA:6,_ZSt7forwardIZ20handleClientPipelineiEUlvE2_EOT_RNSt16remove_referenceIS1_E4typeE
FNDA:3,_ZSt7forwardIZ20handleClientPipelineiEUlvE3_EOT_RNSt16remove_referenceIS1_E4typeE
FNDA:3,_ZSt7forwardIZ20handleClientPipelineiEUlvE4_EOT_RNSt16remove_referenceIS1_E4typeE
FNDA:3,_ZSt7forwardIZ20handleClientPipelineiEUlvE5_EOT_RNSt16remove_referenceIS1_E4typeE
FNDA:3,_ZSt7forwardIZ20handleClientPipelineiEUlvE6_EOT_RNSt16remove_referenceIS1_E4typeE
FNDA:3,_ZSt7forwardIZ20handleClientPipelineiEUlvE_EOT_RNSt16remove_referenceIS1_E4typeE
FNDA:6,_ZSt7forwardIZ7boruvkaRKSt6vectorISt5tupleIJiiiiEESaIS2_EEiEUliiE_EOT_RNSt16remove_referenceIS8_E4typeE
FNDA:27,_ZSt7forwardIZN12ActiveObjectC4EvEUlvE_EOT_RNSt16remove_referenceIS2_E4typeE
FNDA:3,_ZSt7forwardIbEOT_RNSt16remove_referenceIS0_E4typeE
FNDA:32,_ZSt7forwardIiEOT_RNSt16remove_referenceIS0_E4typeE
FNDA:20,_ZSt7forwardImEOT_RNSt16remove_referenceIS0_E4typeE
FNDA:4,_ZSt4moveIR4EdgeEONSt16remove_referenceIT_E4typeEOS3_
FNDA:0,_ZSt4moveIRNSt12_Vector_baseIiSaIiEE12_Vector_implEEONSt16remove_referenceIT_E4typeEOS6_
FNDA:9,_ZSt4moveIRNSt6thread2idEEONSt16remove_referenceIT_E4typeEOS4_
FNDA:34,_ZSt4moveIRNSt7__cxx1112basic_stringIcSt11char_traitsIcESaIcEEEEONSt16remove_referenceIT_E4typeEOS8_
FNDA:27,_ZSt4moveIRPFbRSt9_Any_dataRKS0_St18_Manager_operationEEONSt16remove_referenceIT_E4typeEOS9_
FNDA:27,_ZSt4moveIRPFvRKSt9_Any_dataEEONSt16remove_referenceIT_E4typeEOS7_
FNDA:0,_ZSt4moveIRPNSt6thread6_StateEEONSt16remove_referenceIT_E4typeEOS5_
FNDA:8,_ZSt4moveIRPSt6vectorIiSaIiEEEONSt16remove_referenceIT_E4typeEOS6_
FNDA:4,_ZSt4moveIRSaISt5tupleIJiiiiEEEEONSt16remove_referenceIT_E4typeEOS5_
FNDA:4,_ZSt4moveIRSaISt6vectorIiSaIiEEEEONSt16remove_referenceIT_E4typeEOS6_
FNDA:0,_ZSt4moveIRSaIcEEONSt16remove_referenceIT_E4typeEOS3_
FNDA:0,_ZSt4moveIRSaIiEEONSt16remove_referenceIT_E4typeEOS3_
FNDA:3,_ZSt4moveIRSt5tupleIJZN12ActiveObjectC4EvEUlvE_EEEONSt16remove_referenceIT_E4typeEOS6_
FNDA:0,_ZSt4moveIRSt5tupleIJiiiiEEEONSt16remove_referenceIT_E4typeEOS4_
FNDA:4,_ZSt4moveIRSt6vectorIS0_IiSaIiEESaIS2_EEEONSt16remove_referenceIT_E4typeEOS7_
FNDA:4,_ZSt4moveIRSt6vectorISt5tupleIJiiiiEESaIS2_EEEONSt16remove_referenceIT_E4typeEOS7_
FNDA:0,_ZSt4moveIRSt6vectorIiSaIiEEEONSt16remove_referenceIT_E4typeEOS5_
FNDA:18,_ZSt4moveIRSt8functionIFvvEEEONSt16remove_referenceIT_E4typeEOS5_
FNDA:27,_ZSt4moveIRSt9_Any_dataEONSt16remove_referenceIT_E4typeEOS3_
FNF:84
FNH:70
DA:51,73
DA:52,73
DA:70,368
DA:71,368
DA:97,173
DA:98,173
DA:138,2
DA:139,2
DA:189,30
DA:197,30
DA:198,30
DA:199,30
DA:200,30
LF:13
LH:13
end_of_record
TN:
SF:/usr/include/c++/13/bits/new_allocator.h
FN:104,104,_ZNSt15__new_allocatorI4EdgeED2Ev
FN:104,104,_ZNSt15__new_allocatorINSt8__detail10_Hash_nodeIiLb0EEEED2Ev
FN:104,104,_ZNSt15__new_allocatorIPNSt8__detail15_Hash_node_baseEED2Ev
FN:104,104,_ZNSt15__new_allocatorIPSt8functionIFvvEEED2Ev
FN:104,104,_ZNSt15__new_allocatorIPiED2Ev
FN:104,104,_ZNSt15__new_allocatorISt13_Rb_tree_nodeI4EdgeEED2Ev
FN:104,104,_ZNSt15__new_allocatorISt5tupleIJiiiiEEED2Ev
FN:104,104,_ZNSt15__new_allocatorISt6vectorI4EdgeSaIS1_EEED2Ev
FN:104,104,_ZNSt15__new_allocatorISt6vectorIiSaIiEEED2Ev
FN:104,104,_ZNSt15__new_allocatorISt8functionIFvvEEED2Ev
FN:104,104,_ZNSt15__new_allocatorIbED2Ev
FN:104,104,_ZNSt15__new_allocatorIcED2Ev
FN:104,104,_ZNSt15__new_allocatorIiED2Ev
FN:104,104,_ZNSt15__new_allocatorImED2Ev
FN:126,152,_ZNSt15__new_allocatorI4EdgeE8allocateEmPKv
FN:126,152,_ZNSt15__new_allocatorINSt8__detail10_Hash_nodeIiLb0EEEE8allocateEmPKv
FN:126,152,_ZNSt15__new_allocatorIPNSt8__detail15_Hash_node_baseEE8allocateEmPKv
FN:126,152,_ZNSt15__new_allocatorIPSt8functionIFvvEEE8allocateEmPKv
FN:126,152,_ZNSt15__new_allocatorIPiE8allocateEmPKv
FN:126,152,_ZNSt15__new_allocatorISt13_Rb_tree_nodeI4EdgeEE8allocateEmPKv
FN:126,152,_ZNSt15__new_allocatorISt5tupleIJiiiiEEE8allocateEmPKv
FN:126,152,_ZNSt15__new_allocatorISt6vectorI4EdgeSaIS1_EEE8allocateEmPKv
FN:126,152,_ZNSt15__new_allocatorISt6vectorIiSaIiEEE8allocateEmPKv
FN:126,152,_ZNSt15__new_allocatorISt8functionIFvvEEE8allocateEmPKv
FN:126,152,_ZNSt15__new_allocatorIiE8allocateEmPKv
FN:126,152,_ZNSt15__new_allocatorImE8allocateEmPKv
FN:156,173,_ZNSt15__new_allocatorI4EdgeE10deallocateEPS0_m
FN:156,173,_ZNSt15__new_allocatorINSt8__detail10_Hash_nodeIiLb0EEEE10deallocateEPS2_m
FN:156,173,_ZNSt15__new_allocatorIPNSt8__detail15_Hash_node_baseEE10deallocateEPS2_m
FN:156,173,_ZNSt15__new_allocatorIPSt8functionIFvvEEE10deallocateEPS3_m
FN:156,173,_ZNSt15__new_allocatorIPiE10deallocateEPS0_m
FN:156,173,_ZNSt15__new_allocatorISt13_Rb_tree_nodeI4EdgeEE10deallocateEPS2_m
FN:156,173,_ZNSt15__new_allocatorISt5tupleIJiiiiEEE10deallocateEPS1_m
FN:156,173,_ZNSt15__new_allocatorISt6vectorI4EdgeSaIS1_EEE10deallocateEPS3_m
FN:156,173,_ZNSt15__new_allocatorISt6vectorIiSaIiEEE10deallocateEPS2_m
FN:156,173,_ZNSt15__new_allocatorISt8functionIFvvEEE10deallocateEPS2_m
FN:156,173,_ZNSt15__new_allocatorIiE10deallocateEPim
FN:156,173,_ZNSt15__new_allocatorImE10deallocateEPmm
FNDA:5,_ZNSt15__new_allocatorI4EdgeED2Ev
FNDA:2,_ZNSt15__new_allocatorINSt8__detail10_Hash_nodeIiLb0EEEED2Ev
FNDA:2,_ZNSt15__new_allocatorIPNSt8__detail15_Hash_node_baseEED2Ev
FNDA:6,_ZNSt15__new_allocatorIPSt8functionIFvvEEED2Ev
FNDA:4,_ZNSt15__new_allocatorIPiED2Ev
FNDA:1,_ZNSt15__new_allocatorISt13_Rb_tree_nodeI4EdgeEED2Ev
FNDA:15,_ZNSt15__new_allocatorISt5tupleIJiiiiEEED2Ev
FNDA:3,_ZNSt15__new_allocatorISt6vectorI4EdgeSaIS1_EEED2Ev
FNDA:28,_ZNSt15__new_allocatorISt6vectorIiSaIiEEED2Ev
FNDA:3,_ZNSt15__new_allocatorISt8functionIFvvEEED2Ev
FNDA:1,_ZNSt15__new_allocatorIbED2Ev
FNDA:58,_ZNSt15__new_allocatorIcED2Ev
FNDA:51,_ZNSt15__new_allocatorIiED2Ev
FNDA:2,_ZNSt15__new_allocatorImED2Ev
FNDA:3,_ZNSt15__new_allocatorI4EdgeE8allocateEmPKv
FNDA:1,_ZNSt15__new_allocatorINSt8__detail10_Hash_nodeIiLb0EEEE8allocateEmPKv
FNDA:1,_ZNSt15__new_allocatorIPNSt8__detail15_Hash_node_baseEE8allocateEmPKv
FNDA:3,_ZNSt15__new_allocatorIPSt8functionIFvvEEE8allocateEmPKv
FNDA:2,_ZNSt15__new_allocatorIPiE8allocateEmPKv
FNDA:2,_ZNSt15__new_allocatorISt13_Rb_tree_nodeI4EdgeEE8allocateEmPKv
FNDA:4,_ZNSt15__new_allocatorISt5tupleIJiiiiEEE8allocateEmPKv
FNDA:1,_ZNSt15__new_allocatorISt6vectorI4EdgeSaIS1_EEE8allocateEmPKv
FNDA:8,_ZNSt15__new_allocatorISt6vectorIiSaIiEEE8allocateEmPKv
FNDA:3,_ZNSt15__new_allocatorISt8functionIFvvEEE8allocateEmPKv
FNDA:23,_ZNSt15__new_allocatorIiE8allocateEmPKv
FNDA:1,_ZNSt15__new_allocatorImE8allocateEmPKv
FNDA:3,_ZNSt15__new_allocatorI4EdgeE10deallocateEPS0_m
FNDA:1,_ZNSt15__new_allocatorINSt8__detail10_Hash_nodeIiLb0EEEE10deallocateEPS2_m
FNDA:1,_ZNSt15__new_allocatorIPNSt8__detail15_Hash_node_baseEE10deallocateEPS2_m
FNDA:3,_ZNSt15__new_allocatorIPSt8functionIFvvEEE10deallocateEPS3_m
FNDA:2,_ZNSt15__new_allocatorIPiE10deallocateEPS0_m
FNDA:2,_ZNSt15__new_allocatorISt13_Rb_tree_nodeI4EdgeEE10deallocateEPS2_m
FNDA:4,_ZNSt15__new_allocatorISt5tupleIJiiiiEEE10deallocateEPS1_m
FNDA:1,_ZNSt15__new_allocatorISt6vectorI4EdgeSaIS1_EEE10deallocateEPS3_m
FNDA:8,_ZNSt15__new_allocatorISt6vectorIiSaIiEEE10deallocateEPS2_m
FNDA:3,_ZNSt15__new_allocatorISt8functionIFvvEEE10deallocateEPS2_m
FNDA:23,_ZNSt15__new_allocatorIiE10deallocateEPim
FNDA:1,_ZNSt15__new_allocatorImE10deallocateEPmm
FNF:38
FNH:38
DA:88,100
DA:92,79
DA:104,181
DA:126,52
DA:134,52
DA:138,0
DA:139,0
DA:140,0
DA:151,52
DA:156,52
DA:172,52
DA:183,30
DA:191,24
DA:198,16
DA:233,82
LF:15
LH:12
end_of_record
TN:
SF:/usr/include/c++/13/bits/ptr_traits.h
FN:141,142,_ZNSt19__ptr_traits_ptr_toIPNSt8__detail10_Hash_nodeIiLb0EEES2_Lb0EE10pointer_toERS2_
FN:141,142,_ZNSt19__ptr_traits_ptr_toIPPNSt8__detail15_Hash_node_baseES2_Lb0EE10pointer_toERS2_
FN:212,216,_ZSt12__to_addressINSt8__detail10_Hash_nodeIiLb0EEEEPT_S4_
FN:212,216,_ZSt12__to_addressIPNSt8__detail15_Hash_node_baseEEPT_S4_
FNDA:1,_ZNSt19__ptr_traits_ptr_toIPNSt8__detail10_Hash_nodeIiLb0EEES2_Lb0EE10pointer_toERS2_
FNDA:1,_ZNSt19__ptr_traits_ptr_toIPPNSt8__detail15_Hash_node_baseES2_Lb0EE10pointer_toERS2_
FNDA:1,_ZSt12__to_addressINSt8__detail10_Hash_nodeIiLb0EEEEPT_S4_
FNDA:1,_ZSt12__to_addressIPNSt8__detail15_Hash_node_baseEEPT_S4_
FNF:4
FNH:4
DA:141,2
DA:142,2
DA:212,2
DA:215,2
LF:4
LH:4
end_of_record
TN:
SF:/usr/include/c++/13/bits/std_function.h
FN:134,143,_ZNSt14_Function_base13_Base_managerIZ20handleClientPipelineiEUlvE0_E14_M_get_pointerERKSt9_Any_data
FN:134,143,_ZNSt14_Function_base13_Base_managerIZ20handleClientPipelineiEUlvE1_E14_M_get_pointerERKSt9_Any_data
FN:134,143,_ZNSt14_Function_base13_Base_managerIZ20handleClientPipelineiEUlvE2_E14_M_get_pointerERKSt9_Any_data
FN:134,143,_ZNSt14_Function_base13_Base_managerIZ20handleClientPipelineiEUlvE3_E14_M_get_pointerERKSt9_Any_data
FN:134,143,_ZNSt14_Function_base13_Base_managerIZ20handleClientPipelineiEUlvE4_E14_M_get_pointerERKSt9_Any_data
FN:134,143,_ZNSt14_Function_base13_Base_managerIZ20handleClientPipelineiEUlvE5_E14_M_get_pointerERKSt9_Any_data
FN:134,143,_ZNSt14_Function_base13_Base_managerIZ20handleClientPipelineiEUlvE6_E14_M_get_pointerERKSt9_Any_data
FN:134,143,_ZNSt14_Function_base13_Base_managerIZ20handleClientPipelineiEUlvE_E14_M_get_pointerERKSt9_Any_data
FN:134,143,_ZNSt14_Function_base13_Base_managerIZ7boruvkaRKSt6vectorISt5tupleIJiiiiEESaIS3_EEiEUliiE_E14_M_get_pointerERKSt9_Any_data
FN:150,153,_ZNSt14_Function_base13_Base_managerIZ20handleClientPipelineiEUlvE2_E9_M_createIRKS1_EEvRSt9_Any_dataOT_St17integral_constantIbLb1EE
FN:150,153,_ZNSt14_Function_base13_Base_managerIZ20handleClientPipelineiEUlvE2_E9_M_createIS1_EEvRSt9_Any_dataOT_St17integral_constantIbLb1EE
FN:150,153,_ZNSt14_Function_base13_Base_managerIZ20handleClientPipelineiEUlvE3_E9_M_createIRKS1_EEvRSt9_Any_dataOT_St17integral_constantIbLb1EE
FN:150,153,_ZNSt14_Function_base13_Base_managerIZ20handleClientPipelineiEUlvE3_E9_M_createIS1_EEvRSt9_Any_dataOT_St17integral_constantIbLb1EE
FN:150,153,_ZNSt14_Function_base13_Base_managerIZ20handleClientPipelineiEUlvE6_E9_M_createIRKS1_EEvRSt9_Any_dataOT_St17integral_constantIbLb1EE
FN:150,153,_ZNSt14_Function_base13_Base_managerIZ20handleClientPipelineiEUlvE6_E9_M_createIS1_EEvRSt9_Any_dataOT_St17integral_constantIbLb1EE
FN:158,162,_ZNSt14_Function_base13_Base_managerIZ20handleClientPipelineiEUlvE0_E9_M_createIRKS1_EEvRSt9_Any_dataOT_St17integral_constantIbLb0EE
FN:158,162,_ZNSt14_Function_base13_Base_managerIZ20handleClientPipelineiEUlvE0_E9_M_createIS1_EEvRSt9_Any_dataOT_St17integral_constantIbLb0EE
FN:158,162,_ZNSt14_Function_base13_Base_managerIZ20handleClientPipelineiEUlvE1_E9_M_createIRKS1_EEvRSt9_Any_dataOT_St17integral_constantIbLb0EE
FN:158,162,_ZNSt14_Function_base13_Base_managerIZ20handleClientPipelineiEUlvE1_E9_M_createIS1_EEvRSt9_Any_dataOT_St17integral_constantIbLb0EE
FN:158,162,_ZNSt14_Function_base13_Base_managerIZ20handleClientPipelineiEUlvE4_E9_M_createIRKS1_EEvRSt9_Any_dataOT_St17integral_constantIbLb0EE
FN:158,162,_ZNSt14_Function_base13_Base_managerIZ20handleClientPipelineiEUlvE4_E9_M_createIS1_EEvRSt9_Any_dataOT_St17integral_constantIbLb0EE
FN:158,162,_ZNSt14_Function_base13_Base_managerIZ20handleClientPipelineiEUlvE5_E9_M_createIRKS1_EEvRSt9_Any_dataOT_St17integral_constantIbLb0EE
FN:158,162,_ZNSt14_Function_base13_Base_managerIZ20handleClientPipelineiEUlvE5_E9_M_createIS1_EEvRSt9_Any_dataOT_St17integral_constantIbLb0EE
FN:158,162,_ZNSt14_Function_base13_Base_managerIZ20handleClientPipelineiEUlvE_E9_M_createIRKS1_EEvRSt9_Any_dataOT_St17integral_constantIbLb0EE
FN:158,162,_ZNSt14_Function_base13_Base_managerIZ20handleClientPipelineiEUlvE_E9_M_createIS1_EEvRSt9_Any_dataOT_St17integral_constantIbLb0EE
FN:158,162,_ZNSt14_Function_base13_Base_managerIZ7boruvkaRKSt6vectorISt5tupleIJiiiiEESaIS3_EEiEUliiE_E9_M_createIRKS8_EEvRSt9_Any_dataOT_St17integral_constantIbLb0EE
FN:158,162,_ZNSt14_Function_base13_Base_managerIZ7boruvkaRKSt6vectorISt5tupleIJiiiiEESaIS3_EEiEUliiE_E9_M_createIS8_EEvRSt9_Any_dataOT_St17integral_constantIbLb0EE
FN:166,169,_ZNSt14_Function_base13_Base_managerIZ20handleClientPipelineiEUlvE2_E10_M_destroyERSt9_Any_dataSt17integral_constantIbLb1EE
FN:166,169,_ZNSt14_Function_base13_Base_managerIZ20handleClientPipelineiEUlvE3_E10_M_destroyERSt9_Any_dataSt17integral_constantIbLb1EE
FN:166,169,_ZNSt14_Function_base13_Base_managerIZ20handleClientPipelineiEUlvE6_E10_M_destroyERSt9_Any_dataSt17integral_constantIbLb1EE
FN:173,176,_ZNSt14_Function_base13_Base_managerIZ20handleClientPipelineiEUlvE0_E10_M_destroyERSt9_Any_dataSt17integral_constantIbLb0EE
FN:173,176,_ZNSt14_Function_base13_Base_managerIZ20handleClientPipelineiEUlvE1_E10_M_destroyERSt9_Any_dataSt17integral_constantIbLb0EE
FN:173,176,_ZNSt14_Function_base13_Base_managerIZ20handleClientPipelineiEUlvE4_E10_M_destroyERSt9_Any_dataSt17integral_constantIbLb0EE
FN:173,176,_ZNSt14_Function_base13_Base_managerIZ20handleClientPipelineiEUlvE5_E10_M_destroyERSt9_Any_dataSt17integral_constantIbLb0EE
FN:173,176,_ZNSt14_Function_base13_Base_managerIZ20handleClientPipelineiEUlvE_E10_M_destroyERSt9_Any_dataSt17integral_constantIbLb0EE
FN:173,176,_ZNSt14_Function_base13_Base_managerIZ7boruvkaRKSt6vectorISt5tupleIJiiiiEESaIS3_EEiEUliiE_E10_M_destroyERSt9_Any_dataSt17integral_constantIbLb0EE
FN:180,207,_ZNSt14_Function_base13_Base_managerIZ20handleClientPipelineiEUlvE0_E10_M_managerERSt9_Any_dataRKS3_St18_Manager_operation
FN:180,207,_ZNSt14_Function_base13_Base_managerIZ20handleClientPipelineiEUlvE1_E10_M_managerERSt9_Any_dataRKS3_St18_Manager_operation
FN:180,207,_ZNSt14_Function_base13_Base_managerIZ20handleClientPipelineiEUlvE2_E10_M_managerERSt9_Any_dataRKS3_St18_Manager_operation
FN:180,207,_ZNSt14_Function_base13_Base_managerIZ20handleClientPipelineiEUlvE3_E10_M_managerERSt9_Any_dataRKS3_St18_Manager_operation
FN:180,207,_ZNSt14_Function_base13_Base_managerIZ20handleClientPipelineiEUlvE4_E10_M_managerERSt9_Any_dataRKS3_St18_Manager_operation
FN:180,207,_ZNSt14_Function_base13_Base_managerIZ20handleClientPipelineiEUlvE5_E10_M_managerERSt9_Any_dataRKS3_St18_Manager_operation
FN:180,207,_ZNSt14_Function_base13_Base_managerIZ20handleClientPipelineiEUlvE6_E10_M_managerERSt9_Any_dataRKS3_St18_Manager_operation
FN:180,207,_ZNSt14_Function_base13_Base_managerIZ20handleClientPipelineiEUlvE_E10_M_managerERSt9_Any_dataRKS3_St18_Manager_operation
FN:180,207,_ZNSt14_Function_base13_Base_managerIZ7boruvkaRKSt6vectorISt5tupleIJiiiiEESaIS3_EEiEUliiE_E10_M_managerERSt9_Any_dataRKSA_St18_Manager_operation
FN:211,216,_ZNSt14_Function_base13_Base_managerIZ20handleClientPipelineiEUlvE0_E15_M_init_functorIRKS1_EEvRSt9_Any_dataOT_
FN:211,216,_ZNSt14_Function_base13_Base_managerIZ20handleClientPipelineiEUlvE0_E15_M_init_functorIS1_EEvRSt9_Any_dataOT_
FN:211,216,_ZNSt14_Function_base13_Base_managerIZ20handleClientPipelineiEUlvE1_E15_M_init_functorIRKS1_EEvRSt9_Any_dataOT_
FN:211,216,_ZNSt14_Function_base13_Base_managerIZ20handleClientPipelineiEUlvE1_E15_M_init_functorIS1_EEvRSt9_Any_dataOT_
FN:211,216,_ZNSt14_Function_base13_Base_managerIZ20handleClientPipelineiEUlvE2_E15_M_init_functorIRKS1_EEvRSt9_Any_dataOT_
FN:211,216,_ZNSt14_Function_base13_Base_managerIZ20handleClientPipelineiEUlvE2_E15_M_init_functorIS1_EEvRSt9_Any_dataOT_
FN:211,216,_ZNSt14_Function_base13_Base_managerIZ20handleClientPipelineiEUlvE3_E15_M_init_functorIRKS1_EEvRSt9_Any_dataOT_
FN:211,216,_ZNSt14_Function_base13_Base_managerIZ20handleClientPipelineiEUlvE3_E15_M_init_functorIS1_EEvRSt9_Any_dataOT_
FN:211,216,_ZNSt14_Function_base13_Base_managerIZ20handleClientPipelineiEUlvE4_E15_M_init_functorIRKS1_EEvRSt9_Any_dataOT_
FN:211,216,_ZNSt14_Function_base13_Base_managerIZ20handleClientPipelineiEUlvE4_E15_M_init_functorIS1_EEvRSt9_Any_dataOT_
FN:211,216,_ZNSt14_Function_base13_Base_managerIZ20handleClientPipelineiEUlvE5_E15_M_init_functorIRKS1_EEvRSt9_Any_dataOT_
FN:211,216,_ZNSt14_Function_base13_Base_managerIZ20handleClientPipelineiEUlvE5_E15_M_init_functorIS1_EEvRSt9_Any_dataOT_
FN:211,216,_ZNSt14_Function_base13_Base_managerIZ20handleClientPipelineiEUlvE6_E15_M_init_functorIRKS1_EEvRSt9_Any_dataOT_
FN:211,216,_ZNSt14_Function_base13_Base_managerIZ20handleClientPipelineiEUlvE6_E15_M_init_functorIS1_EEvRSt9_Any_dataOT_
FN:211,216,_ZNSt14_Function_base13_Base_managerIZ20handleClientPipelineiEUlvE_E15_M_init_functorIRKS1_EEvRSt9_Any_dataOT_
FN:211,216,_ZNSt14_Function_base13_Base_managerIZ20handleClientPipelineiEUlvE_E15_M_init_functorIS1_EEvRSt9_Any_dataOT_
FN:211,216,_ZNSt14_Function_base13_Base_managerIZ7boruvkaRKSt6vectorISt5tupleIJiiiiEESaIS3_EEiEUliiE_E15_M_init_functorIRKS8_EEvRSt9_Any_dataOT_
FN:211,216,_ZNSt14_Function_base13_Base_managerIZ7boruvkaRKSt6vectorISt5tupleIJiiiiEESaIS3_EEiEUliiE_E15_M_init_functorIS8_EEvRSt9_Any_dataOT_
FN:235,236,_ZNSt14_Function_base13_Base_managerIZ20handleClientPipelineiEUlvE0_E21_M_not_empty_functionIS1_EEbRKT_
FN:235,236,_ZNSt14_Function_base13_Base_managerIZ20handleClientPipelineiEUlvE1_E21_M_not_empty_functionIS1_EEbRKT_
FN:235,236,_ZNSt14_Function_base13_Base_managerIZ20handleClientPipelineiEUlvE2_E21_M_not_empty_functionIS1_EEbRKT_
FN:235,236,_ZNSt14_Function_base13_Base_managerIZ20handleClientPipelineiEUlvE3_E21_M_not_empty_functionIS1_EEbRKT_
FN:235,236,_ZNSt14_Function_base13_Base_managerIZ20handleClientPipelineiEUlvE4_E21_M_not_empty_functionIS1_EEbRKT_
FN:235,236,_ZNSt14_Function_base13_Base_managerIZ20handleClientPipelineiEUlvE5_E21_M_not_empty_functionIS1_EEbRKT_
FN:235,236,_ZNSt14_Function_base13_Base_managerIZ20handleClientPipelineiEUlvE6_E21_M_not_empty_functionIS1_EEbRKT_
FN:235,236,_ZNSt14_Function_base13_Base_managerIZ20handleClientPipelineiEUlvE_E21_M_not_empty_functionIS1_EEbRKT_
FN:235,236,_ZNSt14_Function_base13_Base_managerIZ7boruvkaRKSt6vectorISt5tupleIJiiiiEESaIS3_EEiEUliiE_E21_M_not_empty_functionIS8_EEbRKT_
FN:239,239,_ZNSt14_Function_baseC2Ev
FN:241,245,_ZNSt14_Function_baseD2Ev
FN:247,247,_ZNKSt14_Function_base8_M_emptyEv
FN:267,285,_ZNSt17_Function_handlerIFviiEZ7boruvkaRKSt6vectorISt5tupleIJiiiiEESaIS3_EEiEUliiE_E10_M_managerERSt9_Any_dataRKSA_St18_Manager_operation
FN:267,285,_ZNSt17_Function_handlerIFvvEZ20handleClientPipelineiEUlvE0_E10_M_managerERSt9_Any_dataRKS3_St18_Manager_operation
FN:267,285,_ZNSt17_Function_handlerIFvvEZ20handleClientPipelineiEUlvE1_E10_M_managerERSt9_Any_dataRKS3_St18_Manager_operation
FN:267,285,_ZNSt17_Function_handlerIFvvEZ20handleClientPipelineiEUlvE2_E10_M_managerERSt9_Any_dataRKS3_St18_Manager_operation
FN:267,285,_ZNSt17_Function_handlerIFvvEZ20handleClientPipelineiEUlvE3_E10_M_managerERSt9_Any_dataRKS3_St18_Manager_operation
FN:267,285,_ZNSt17_Function_handlerIFvvEZ20handleClientPipelineiEUlvE4_E10_M_managerERSt9_Any_dataRKS3_St18_Manager_operation
FN:267,285,_ZNSt17_Function_handlerIFvvEZ20handleClientPipelineiEUlvE5_E10_M_managerERSt9_Any_dataRKS3_St18_Manager_operation
FN:267,285,_ZNSt17_Function_handlerIFvvEZ20handleClientPipelineiEUlvE6_E10_M_managerERSt9_Any_dataRKS3_St18_Manager_operation
FN:267,285,_ZNSt17_Function_handlerIFvvEZ20handleClientPipelineiEUlvE_E10_M_managerERSt9_Any_dataRKS3_St18_Manager_operation
FN:288,292,_ZNSt17_Function_handlerIFviiEZ7boruvkaRKSt6vectorISt5tupleIJiiiiEESaIS3_EEiEUliiE_E9_M_invokeERKSt9_Any_dataOiSD_
FN:288,292,_ZNSt17_Function_handlerIFvvEZ20handleClientPipelineiEUlvE0_E9_M_invokeERKSt9_Any_data
FN:288,292,_ZNSt17_Function_handlerIFvvEZ20handleClientPipelineiEUlvE1_E9_M_invokeERKSt9_Any_data
FN:288,292,_ZNSt17_Function_handlerIFvvEZ20handleClientPipelineiEUlvE2_E9_M_invokeERKSt9_Any_data
FN:288,292,_ZNSt17_Function_handlerIFvvEZ20handleClientPipelineiEUlvE3_E9_M_invokeERKSt9_Any_data
FN:288,292,_ZNSt17_Function_handlerIFvvEZ20handleClientPipelineiEUlvE4_E9_M_invokeERKSt9_Any_data
FN:288,292,_ZNSt17_Function_handlerIFvvEZ20handleClientPipelineiEUlvE5_E9_M_invokeERKSt9_Any_data
FN:288,292,_ZNSt17_Function_handlerIFvvEZ20handleClientPipelineiEUlvE6_E9_M_invokeERKSt9_Any_data
FN:288,292,_ZNSt17_Function_handlerIFvvEZ20handleClientPipelineiEUlvE_E9_M_invokeERKSt9_Any_data
FN:368,369,_ZNSt8functionIFvvEEC2Ev
FN:386,395,_ZNSt8functionIFvvEEC2ERKS1_
FN:404,414,_ZNSt8functionIFvvEEC2EOS1_
FN:435,454,_ZNSt8functionIFviiEEC2IZ7boruvkaRKSt6vectorISt5tupleIJiiiiEESaIS5_EEiEUliiE_vEEOT_
FN:435,454,_ZNSt8functionIFvvEEC2IZ20handleClientPipelineiEUlvE0_vEEOT_
FN:435,454,_ZNSt8functionIFvvEEC2IZ20handleClientPipelineiEUlvE1_vEEOT_
FN:435,454,_ZNSt8functionIFvvEEC2IZ20handleClientPipelineiEUlvE2_vEEOT_
FN:435,454,_ZNSt8functionIFvvEEC2IZ20handleClientPipelineiEUlvE3_vEEOT_
FN:435,454,_ZNSt8functionIFvvEEC2IZ20handleClientPipelineiEUlvE4_vEEOT_
FN:435,454,_ZNSt8functionIFvvEEC2IZ20handleClientPipelineiEUlvE5_vEEOT_
FN:435,454,_ZNSt8functionIFvvEEC2IZ20handleClientPipelineiEUlvE6_vEEOT_
FN:435,454,_ZNSt8functionIFvvEEC2IZ20handleClientPipelineiEUlvE_vEEOT_
FN:487,491,_ZNSt8functionIFvvEEaSEOS1_
FN:556,561,_ZNSt8functionIFvvEE4swapERS1_
FN:573,574,_ZNKSt8functionIFvvEEcvbEv
FN:587,592,_ZNKSt8functionIFviiEEclEii
FN:587,592,_ZNKSt8functionIFvvEEclEv
FN:85,85,_ZNSt9_Any_data9_M_accessEv
FN:86,86,_ZNKSt9_Any_data9_M_accessEv
FN:90,91,_ZNSt9_Any_data9_M_accessIPKSt9type_infoEERT_v
FN:90,91,_ZNSt9_Any_data9_M_accessIPZ20handleClientPipelineiEUlvE0_EERT_v
FN:90,91,_ZNSt9_Any_data9_M_accessIPZ20handleClientPipelineiEUlvE1_EERT_v
FN:90,91,_ZNSt9_Any_data9_M_accessIPZ20handleClientPipelineiEUlvE2_EERT_v
FN:90,91,_ZNSt9_Any_data9_M_accessIPZ20handleClientPipelineiEUlvE3_EERT_v
FN:90,91,_ZNSt9_Any_data9_M_accessIPZ20handleClientPipelineiEUlvE4_EERT_v
FN:90,91,_ZNSt9_Any_data9_M_accessIPZ20handleClientPipelineiEUlvE5_EERT_v
FN:90,91,_ZNSt9_Any_data9_M_accessIPZ20handleClientPipelineiEUlvE6_EERT_v
FN:90,91,_ZNSt9_Any_data9_M_accessIPZ20handleClientPipelineiEUlvE_EERT_v
FN:90,91,_ZNSt9_Any_data9_M_accessIPZ7boruvkaRKSt6vectorISt5tupleIJiiiiEESaIS3_EEiEUliiE_EERT_v
FN:90,91,_ZNSt9_Any_data9_M_accessIZ20handleClientPipelineiEUlvE2_EERT_v
FN:90,91,_ZNSt9_Any_data9_M_accessIZ20handleClientPipelineiEUlvE3_EERT_v
FN:90,91,_ZNSt9_Any_data9_M_accessIZ20handleClientPipelineiEUlvE6_EERT_v
FN:95,96,_ZNKSt9_Any_data9_M_accessIPZ20handleClientPipelineiEUlvE0_EERKT_v
FN:95,96,_ZNKSt9_Any_data9_M_accessIPZ20handleClientPipelineiEUlvE1_EERKT_v
FN:95,96,_ZNKSt9_Any_data9_M_accessIPZ20handleClientPipelineiEUlvE4_EERKT_v
FN:95,96,_ZNKSt9_Any_data9_M_accessIPZ20handleClientPipelineiEUlvE5_EERKT_v
FN:95,96,_ZNKSt9_Any_data9_M_accessIPZ20handleClientPipelineiEUlvE_EERKT_v
FN:95,96,_ZNKSt9_Any_data9_M_accessIPZ7boruvkaRKSt6vectorISt5tupleIJiiiiEESaIS3_EEiEUliiE_EERKT_v
FN:95,96,_ZNKSt9_Any_data9_M_accessIZ20handleClientPipelineiEUlvE2_EERKT_v
FN:95,96,_ZNKSt9_Any_data9_M_accessIZ20handleClientPipelineiEUlvE3_EERKT_v
FN:95,96,_ZNKSt9_Any_data9_M_accessIZ20handleClientPipelineiEUlvE6_EERKT_v
FNDA:2,_ZNSt14_Function_base13_Base_managerIZ20handleClientPipelineiEUlvE0_E14_M_get_pointerERKSt9_Any_data
FNDA:2,_ZNSt14_Function_base13_Base_managerIZ20handleClientPipelineiEUlvE1_E14_M_get_pointerERKSt9_Any_data
FNDA:4,_ZNSt14_Function_base13_Base_managerIZ20handleClientPipelineiEUlvE2_E14_M_get_pointerERKSt9_Any_data
FNDA:2,_ZNSt14_Function_base13_Base_managerIZ20handleClientPipelineiEUlvE3_E14_M_get_pointerERKSt9_Any_data
FNDA:2,_ZNSt14_Function_base13_Base_managerIZ20handleClientPipelineiEUlvE4_E14_M_get_pointerERKSt9_Any_data
FNDA:2,_ZNSt14_Function_base13_Base_managerIZ20handleClientPipelineiEUlvE5_E14_M_get_pointerERKSt9_Any_data
FNDA:2,_ZNSt14_Function_base13_Base_managerIZ20handleClientPipelineiEUlvE6_E14_M_get_pointerERKSt9_Any_data
FNDA:2,_ZNSt14_Function_base13_Base_managerIZ20handleClientPipelineiEUlvE_E14_M_get_pointerERKSt9_Any_data
FNDA:4,_ZNSt14_Function_base13_Base_managerIZ7boruvkaRKSt6vectorISt5tupleIJiiiiEESaIS3_EEiEUliiE_E14_M_get_pointerERKSt9_Any_data
FNDA:2,_ZNSt14_Function_base13_Base_managerIZ20handleClientPipelineiEUlvE2_E9_M_createIRKS1_EEvRSt9_Any_dataOT_St17integral_constantIbLb1EE
FNDA:2,_ZNSt14_Function_base13_Base_managerIZ20handleClientPipelineiEUlvE2_E9_M_createIS1_EEvRSt9_Any_dataOT_St17integral_constantIbLb1EE
FNDA:1,_ZNSt14_Function_base13_Base_managerIZ20handleClientPipelineiEUlvE3_E9_M_createIRKS1_EEvRSt9_Any_dataOT_St17integral_constantIbLb1EE
FNDA:1,_ZNSt14_Function_base13_Base_managerIZ20handleClientPipelineiEUlvE3_E9_M_createIS1_EEvRSt9_Any_dataOT_St17integral_constantIbLb1EE
FNDA:1,_ZNSt14_Function_base13_Base_managerIZ20handleClientPipelineiEUlvE6_E9_M_createIRKS1_EEvRSt9_Any_dataOT_St17integral_constantIbLb1EE
FNDA:1,_ZNSt14_Function_base13_Base_managerIZ20handleClientPipelineiEUlvE6_E9_M_createIS1_EEvRSt9_Any_dataOT_St17integral_constantIbLb1EE
FNDA:1,_ZNSt14_Function_base13_Base_managerIZ20handleClientPipelineiEUlvE0_E9_M_createIRKS1_EEvRSt9_Any_dataOT_St17integral_constantIbLb0EE
FNDA:1,_ZNSt14_Function_base13_Base_managerIZ20handleClientPipelineiEUlvE0_E9_M_createIS1_EEvRSt9_Any_dataOT_St17integral_constantIbLb0EE
FNDA:1,_ZNSt14_Function_base13_Base_managerIZ20handleClientPipelineiEUlvE1_E9_M_createIRKS1_EEvRSt9_Any_dataOT_St17integral_constantIbLb0EE
FNDA:1,_ZNSt14_Function_base13_Base_managerIZ20handleClientPipelineiEUlvE1_E9_M_createIS1_EEvRSt9_Any_dataOT_St17integral_constantIbLb0EE
FNDA:1,_ZNSt14_Function_base13_Base_managerIZ20handleClientPipelineiEUlvE4_E9_M_createIRKS1_EEvRSt9_Any_dataOT_St17integral_constantIbLb0EE
FNDA:1,_ZNSt14_Function_base13_Base_managerIZ20handleClientPipelineiEUlvE4_E9_M_createIS1_EEvRSt9_Any_dataOT_St17integral_constantIbLb0EE
FNDA:1,_ZNSt14_Function_base13_Base_managerIZ20handleClientPipelineiEUlvE5_E9_M_createIRKS1_EEvRSt9_Any_dataOT_St17integral_constantIbLb0EE
FNDA:1,_ZNSt14_Function_base13_Base_managerIZ20handleClientPipelineiEUlvE5_E9_M_createIS1_EEvRSt9_Any_dataOT_St17integral_constantIbLb0EE
FNDA:1,_ZNSt14_Function_base13_Base_managerIZ20handleClientPipelineiEUlvE_E9_M_createIRKS1_EEvRSt9_Any_dataOT_St17integral_constantIbLb0EE
FNDA:1,_ZNSt14_Function_base13_Base_managerIZ20handleClientPipelineiEUlvE_E9_M_createIS1_EEvRSt9_Any_dataOT_St17integral_constantIbLb0EE
FNDA:0,_ZNSt14_Function_base13_Base_managerIZ7boruvkaRKSt6vectorISt5tupleIJiiiiEESaIS3_EEiEUliiE_E9_M_createIRKS8_EEvRSt9_Any_dataOT_St17integral_constantIbLb0EE
FNDA:2,_ZNSt14_Function_base13_Base_managerIZ7boruvkaRKSt6vectorISt5tupleIJiiiiEESaIS3_EEiEUliiE_E9_M_createIS8_EEvRSt9_Any_dataOT_St17integral_constantIbLb0EE
FNDA:4,_ZNSt14_Function_base13_Base_managerIZ20handleClientPipelineiEUlvE2_E10_M_destroyERSt9_Any_dataSt17integral_constantIbLb1EE
FNDA:2,_ZNSt14_Function_base13_Base_managerIZ20handleClientPipelineiEUlvE3_E10_M_destroyERSt9_Any_dataSt17integral_constantIbLb1EE
FNDA:2,_ZNSt14_Function_base13_Base_managerIZ20handleClientPipelineiEUlvE6_E10_M_destroyERSt9_Any_dataSt17integral_constantIbLb1EE
FNDA:2,_ZNSt14_Function_base13_Base_managerIZ20handleClientPipelineiEUlvE0_E10_M_destroyERSt9_Any_dataSt17integral_constantIbLb0EE
FNDA:2,_ZNSt14_Function_base13_Base_managerIZ20handleClientPipelineiEUlvE1_E10_M_destroyERSt9_Any_dataSt17integral_constantIbLb0EE
FNDA:2,_ZNSt14_Function_base13_Base_managerIZ20handleClientPipelineiEUlvE4_E10_M_destroyERSt9_Any_dataSt17integral_constantIbLb0EE
FNDA:2,_ZNSt14_Function_base13_Base_managerIZ20handleClientPipelineiEUlvE5_E10_M_destroyERSt9_Any_dataSt17integral_constantIbLb0EE
FNDA:2,_ZNSt14_Function_base13_Base_managerIZ20handleClientPipelineiEUlvE_E10_M_destroyERSt9_Any_dataSt17integral_constantIbLb0EE
FNDA:2,_ZNSt14_Function_base13_Base_managerIZ7boruvkaRKSt6vectorISt5tupleIJiiiiEESaIS3_EEiEUliiE_E10_M_destroyERSt9_Any_dataSt17integral_constantIbLb0EE
FNDA:3,_ZNSt14_Function_base13_Base_managerIZ20handleClientPipelineiEUlvE0_E10_M_managerERSt9_Any_dataRKS3_St18_Manager_operation
FNDA:3,_ZNSt14_Function_base13_Base_managerIZ20handleClientPipelineiEUlvE1_E10_M_managerERSt9_Any_dataRKS3_St18_Manager_operation
FNDA:6,_ZNSt14_Function_base13_Base_managerIZ20handleClientPipelineiEUlvE2_E10_M_managerERSt9_Any_dataRKS3_St18_Manager_operation
FNDA:3,_ZNSt14_Function_base13_Base_managerIZ20handleClientPipelineiEUlvE3_E10_M_managerERSt9_Any_dataRKS3_St18_Manager_operation
FNDA:3,_ZNSt14_Function_base13_Base_managerIZ20handleClientPipelineiEUlvE4_E10_M_managerERSt9_Any_dataRKS3_St18_Manager_operation
FNDA:3,_ZNSt14_Function_base13_Base_managerIZ20handleClientPipelineiEUlvE5_E10_M_managerERSt9_Any_dataRKS3_St18_Manager_operation
FNDA:3,_ZNSt14_Function_base13_Base_managerIZ20handleClientPipelineiEUlvE6_E10_M_managerERSt9_Any_dataRKS3_St18_Manager_operation
FNDA:3,_ZNSt14_Function_base13_Base_managerIZ20handleClientPipelineiEUlvE_E10_M_managerERSt9_Any_dataRKS3_St18_Manager_operation
FNDA:2,_ZNSt14_Function_base13_Base_managerIZ7boruvkaRKSt6vectorISt5tupleIJiiiiEESaIS3_EEiEUliiE_E10_M_managerERSt9_Any_dataRKSA_St18_Manager_operation
FNDA:1,_ZNSt14_Function_base13_Base_managerIZ20handleClientPipelineiEUlvE0_E15_M_init_functorIRKS1_EEvRSt9_Any_dataOT_
FNDA:1,_ZNSt14_Function_base13_Base_managerIZ20handleClientPipelineiEUlvE0_E15_M_init_functorIS1_EEvRSt9_Any_dataOT_
FNDA:1,_ZNSt14_Function_base13_Base_managerIZ20handleClientPipelineiEUlvE1_E15_M_init_functorIRKS1_EEvRSt9_Any_dataOT_
FNDA:1,_ZNSt14_Function_base13_Base_managerIZ20handleClientPipelineiEUlvE1_E15_M_init_functorIS1_EEvRSt9_Any_dataOT_
FNDA:2,_ZNSt14_Function_base13_Base_managerIZ20handleClientPipelineiEUlvE2_E15_M_init_functorIRKS1_EEvRSt9_Any_dataOT_
FNDA:2,_ZNSt14_Function_base13_Base_managerIZ20handleClientPipelineiEUlvE2_E15_M_init_functorIS1_EEvRSt9_Any_dataOT_
FNDA:1,_ZNSt14_Function_base13_Base_managerIZ20handleClientPipelineiEUlvE3_E15_M_init_functorIRKS1_EEvRSt9_Any_dataOT_
FNDA:1,_ZNSt14_Function_base13_Base_managerIZ20handleClientPipelineiEUlvE3_E15_M_init_functorIS1_EEvRSt9_Any_dataOT_
FNDA:1,_ZNSt14_Function_base13_Base_managerIZ20handleClientPipelineiEUlvE4_E15_M_init_functorIRKS1_EEvRSt9_Any_dataOT_
FNDA:1,_ZNSt14_Function_base13_Base_managerIZ20handleClientPipelineiEUlvE4_E15_M_init_functorIS1_EEvRSt9_Any_dataOT_
FNDA:1,_ZNSt14_Function_base13_Base_managerIZ20handleClientPipelineiEUlvE5_E15_M_init_functorIRKS1_EEvRSt9_Any_dataOT_
FNDA:1,_ZNSt14_Function_base13_Base_managerIZ20handleClientPipelineiEUlvE5_E15_M_init_functorIS1_EEvRSt9_Any_dataOT_
FNDA:1,_ZNSt14_Function_base13_Base_managerIZ20handleClientPipelineiEUlvE6_E15_M_init_functorIRKS1_EEvRSt9_Any_dataOT_
FNDA:1,_ZNSt14_Function_base13_Base_managerIZ20handleClientPipelineiEUlvE6_E15_M_init_functorIS1_EEvRSt9_Any_dataOT_
FNDA:1,_ZNSt14_Function_base13_Base_managerIZ20handleClientPipelineiEUlvE_E15_M_init_functorIRKS1_EEvRSt9_Any_dataOT_
FNDA:1,_ZNSt14_Function_base13_Base_managerIZ20handleClientPipelineiEUlvE_E15_M_init_functorIS1_EEvRSt9_Any_dataOT_
FNDA:0,_ZNSt14_Function_base13_Base_managerIZ7boruvkaRKSt6vectorISt5tupleIJiiiiEESaIS3_EEiEUliiE_E15_M_init_functorIRKS8_EEvRSt9_Any_dataOT_
FNDA:2,_ZNSt14_Function_base13_Base_managerIZ7boruvkaRKSt6vectorISt5tupleIJiiiiEESaIS3_EEiEUliiE_E15_M_init_functorIS8_EEvRSt9_Any_dataOT_
FNDA:1,_ZNSt14_Function_base13_Base_managerIZ20handleClientPipelineiEUlvE0_E21_M_not_empty_functionIS1_EEbRKT_
FNDA:1,_ZNSt14_Function_base13_Base_managerIZ20handleClientPipelineiEUlvE1_E21_M_not_empty_functionIS1_EEbRKT_
FNDA:2,_ZNSt14_Function_base13_Base_managerIZ20handleClientPipelineiEUlvE2_E21_M_not_empty_functionIS1_EEbRKT_
FNDA:1,_ZNSt14_Function_base13_Base_managerIZ20handleClientPipelineiEUlvE3_E21_M_not_empty_functionIS1_EEbRKT_
FNDA:1,_ZNSt14_Function_base13_Base_managerIZ20handleClientPipelineiEUlvE4_E21_M_not_empty_functionIS1_EEbRKT_
FNDA:1,_ZNSt14_Function_base13_Base_managerIZ20handleClientPipelineiEUlvE5_E21_M_not_empty_functionIS1_EEbRKT_
FNDA:1,_ZNSt14_Function_base13_Base_managerIZ20handleClientPipelineiEUlvE6_E21_M_not_empty_functionIS1_EEbRKT_
FNDA:1,_ZNSt14_Function_base13_Base_managerIZ20handleClientPipelineiEUlvE_E21_M_not_empty_functionIS1_EEbRKT_
FNDA:2,_ZNSt14_Function_base13_Base_managerIZ7boruvkaRKSt6vectorISt5tupleIJiiiiEESaIS3_EEiEUliiE_E21_M_not_empty_functionIS8_EEbRKT_
FNDA:41,_ZNSt14_Function_baseC2Ev
FNDA:41,_ZNSt14_Function_baseD2Ev
FNDA:31,_ZNKSt14_Function_base8_M_emptyEv
FNDA:2,_ZNSt17_Function_handlerIFviiEZ7boruvkaRKSt6vectorISt5tupleIJiiiiEESaIS3_EEiEUliiE_E10_M_managerERSt9_Any_dataRKSA_St18_Manager_operation
FNDA:3,_ZNSt17_Function_handlerIFvvEZ20handleClientPipelineiEUlvE0_E10_M_managerERSt9_Any_dataRKS3_St18_Manager_operation
FNDA:3,_ZNSt17_Function_handlerIFvvEZ20handleClientPipelineiEUlvE1_E10_M_managerERSt9_Any_dataRKS3_St18_Manager_operation
FNDA:6,_ZNSt17_Function_handlerIFvvEZ20handleClientPipelineiEUlvE2_E10_M_managerERSt9_Any_dataRKS3_St18_Manager_operation
FNDA:3,_ZNSt17_Function_handlerIFvvEZ20handleClientPipelineiEUlvE3_E10_M_managerERSt9_Any_dataRKS3_St18_Manager_operation
FNDA:3,_ZNSt17_Function_handlerIFvvEZ20handleClientPipelineiEUlvE4_E10_M_managerERSt9_Any_dataRKS3_St18_Manager_operation
FNDA:3,_ZNSt17_Function_handlerIFvvEZ20handleClientPipelineiEUlvE5_E10_M_managerERSt9_Any_dataRKS3_St18_Manager_operation
FNDA:3,_ZNSt17_Function_handlerIFvvEZ20handleClientPipelineiEUlvE6_E10_M_managerERSt9_Any_dataRKS3_St18_Manager_operation
FNDA:3,_ZNSt17_Function_handlerIFvvEZ20handleClientPipelineiEUlvE_E10_M_managerERSt9_Any_dataRKS3_St18_Manager_operation
FNDA:4,_ZNSt17_Function_handlerIFviiEZ7boruvkaRKSt6vectorISt5tupleIJiiiiEESaIS3_EEiEUliiE_E9_M_invokeERKSt9_Any_dataOiSD_
FNDA:1,_ZNSt17_Function_handlerIFvvEZ20handleClientPipelineiEUlvE0_E9_M_invokeERKSt9_Any_data
FNDA:1,_ZNSt17_Function_handlerIFvvEZ20handleClientPipelineiEUlvE1_E9_M_invokeERKSt9_Any_data
FNDA:2,_ZNSt17_Function_handlerIFvvEZ20handleClientPipelineiEUlvE2_E9_M_invokeERKSt9_Any_data
FNDA:1,_ZNSt17_Function_handlerIFvvEZ20handleClientPipelineiEUlvE3_E9_M_invokeERKSt9_Any_data
FNDA:1,_ZNSt17_Function_handlerIFvvEZ20handleClientPipelineiEUlvE4_E9_M_invokeERKSt9_Any_data
FNDA:1,_ZNSt17_Function_handlerIFvvEZ20handleClientPipelineiEUlvE5_E9_M_invokeERKSt9_Any_data
FNDA:1,_ZNSt17_Function_handlerIFvvEZ20handleClientPipelineiEUlvE6_E9_M_invokeERKSt9_Any_data
FNDA:1,_ZNSt17_Function_handlerIFvvEZ20handleClientPipelineiEUlvE_E9_M_invokeERKSt9_Any_data
FNDA:12,_ZNSt8functionIFvvEEC2Ev
FNDA:9,_ZNSt8functionIFvvEEC2ERKS1_
FNDA:9,_ZNSt8functionIFvvEEC2EOS1_
FNDA:2,_ZNSt8functionIFviiEEC2IZ7boruvkaRKSt6vectorISt5tupleIJiiiiEESaIS5_EEiEUliiE_vEEOT_
FNDA:1,_ZNSt8functionIFvvEEC2IZ20handleClientPipelineiEUlvE0_vEEOT_
FNDA:1,_ZNSt8functionIFvvEEC2IZ20handleClientPipelineiEUlvE1_vEEOT_
FNDA:2,_ZNSt8functionIFvvEEC2IZ20handleClientPipelineiEUlvE2_vEEOT_
FNDA:1,_ZNSt8functionIFvvEEC2IZ20handleClientPipelineiEUlvE3_vEEOT_
FNDA:1,_ZNSt8functionIFvvEEC2IZ20handleClientPipelineiEUlvE4_vEEOT_
FNDA:1,_ZNSt8functionIFvvEEC2IZ20handleClientPipelineiEUlvE5_vEEOT_
FNDA:1,_ZNSt8functionIFvvEEC2IZ20handleClientPipelineiEUlvE6_vEEOT_
FNDA:1,_ZNSt8functionIFvvEEC2IZ20handleClientPipelineiEUlvE_vEEOT_
FNDA:9,_ZNSt8functionIFvvEEaSEOS1_
FNDA:9,_ZNSt8functionIFvvEE4swapERS1_
FNDA:18,_ZNKSt8functionIFvvEEcvbEv
FNDA:4,_ZNKSt8functionIFviiEEclEii
FNDA:9,_ZNKSt8functionIFvvEEclEv
FNDA:40,_ZNSt9_Any_data9_M_accessEv
FNDA:22,_ZNKSt9_Any_data9_M_accessEv
FNDA:0,_ZNSt9_Any_data9_M_accessIPKSt9type_infoEERT_v
FNDA:4,_ZNSt9_Any_data9_M_accessIPZ20handleClientPipelineiEUlvE0_EERT_v
FNDA:4,_ZNSt9_Any_data9_M_accessIPZ20handleClientPipelineiEUlvE1_EERT_v
FNDA:0,_ZNSt9_Any_data9_M_accessIPZ20handleClientPipelineiEUlvE2_EERT_v
FNDA:0,_ZNSt9_Any_data9_M_accessIPZ20handleClientPipelineiEUlvE3_EERT_v
FNDA:4,_ZNSt9_Any_data9_M_accessIPZ20handleClientPipelineiEUlvE4_EERT_v
FNDA:4,_ZNSt9_Any_data9_M_accessIPZ20handleClientPipelineiEUlvE5_EERT_v
FNDA:0,_ZNSt9_Any_data9_M_accessIPZ20handleClientPipelineiEUlvE6_EERT_v
FNDA:4,_ZNSt9_Any_data9_M_accessIPZ20handleClientPipelineiEUlvE_EERT_v
FNDA:4,_ZNSt9_Any_data9_M_accessIPZ7boruvkaRKSt6vectorISt5tupleIJiiiiEESaIS3_EEiEUliiE_EERT_v
FNDA:4,_ZNSt9_Any_data9_M_accessIZ20handleClientPipelineiEUlvE2_EERT_v
FNDA:2,_ZNSt9_Any_data9_M_accessIZ20handleClientPipelineiEUlvE3_EERT_v
FNDA:2,_ZNSt9_Any_data9_M_accessIZ20handleClientPipelineiEUlvE6_EERT_v
FNDA:2,_ZNKSt9_Any_data9_M_accessIPZ20handleClientPipelineiEUlvE0_EERKT_v
FNDA:2,_ZNKSt9_Any_data9_M_accessIPZ20handleClientPipelineiEUlvE1_EERKT_v
FNDA:2,_ZNKSt9_Any_data9_M_accessIPZ20handleClientPipelineiEUlvE4_EERKT_v
FNDA:2,_ZNKSt9_Any_data9_M_accessIPZ20handleClientPipelineiEUlvE5_EERKT_v
FNDA:2,_ZNKSt9_Any_data9_M_accessIPZ20handleClientPipelineiEUlvE_EERKT_v
FNDA:4,_ZNKSt9_Any_data9_M_accessIPZ7boruvkaRKSt6vectorISt5tupleIJiiiiEESaIS3_EEiEUliiE_EERKT_v
FNDA:4,_ZNKSt9_Any_data9_M_accessIZ20handleClientPipelineiEUlvE2_EERKT_v
FNDA:2,_ZNKSt9_Any_data9_M_accessIZ20handleClientPipelineiEUlvE3_EERKT_v
FNDA:2,_ZNKSt9_Any_data9_M_accessIZ20handleClientPipelineiEUlvE6_EERKT_v
FNF:134
FNH:128
DA:85,40
DA:86,22
DA:90,32
DA:91,32
DA:95,22
DA:96,22
DA:134,22
DA:138,8
DA:139,8
DA:142,14
DA:150,8
DA:152,8
DA:153,8
DA:158,12
DA:160,12
DA:161,12
DA:162,12
DA:166,8
DA:168,8
DA:169,8
DA:173,12
DA:175,12
DA:176,12
DA:180,29
DA:183,29
DA:185,0
DA:187,0
DA:191,0
DA:193,0
DA:194,0
DA:195,0
DA:197,9
DA:198,9
DA:199,9
DA:200,9
DA:202,20
DA:203,20
DA:204,20
DA:206,29
DA:211,20
DA:215,20
DA:216,20
DA:235,11
DA:236,11
DA:239,41
DA:241,41
DA:243,41
DA:244,20
DA:245,41
DA:247,31
DA:267,29
DA:270,29
DA:273,0
DA:274,0
DA:275,0
DA:277,0
DA:278,0
DA:279,0
DA:281,29
DA:282,29
DA:284,29
DA:288,13
DA:290,13
DA:291,13
DA:368,12
DA:369,12
DA:386,9
DA:387,9
DA:389,9
DA:391,9
DA:392,9
DA:393,9
DA:395,9
DA:404,9
DA:405,9
DA:407,9
DA:409,9
DA:410,9
DA:411,9
DA:412,9
DA:414,9
DA:435,11
DA:437,11
DA:447,11
DA:449,11
DA:451,11
DA:452,11
DA:454,11
DA:487,9
DA:489,9
DA:490,9
DA:556,9
DA:558,9
DA:559,9
DA:560,9
DA:561,9
DA:573,18
DA:574,18
DA:587,13
DA:589,13
DA:590,0
DA:591,13
LF:102
LH:89
end_of_record
TN:
SF:/usr/include/c++/13/bits/std_mutex.h
FN:104,104,_ZNSt5mutexC2Ev
FN:111,118,_ZNSt5mutex4lockEv
FN:129,133,_ZNSt5mutex6unlockEv
FN:67,67,_ZNSt12__mutex_baseC2Ev
FNDA:3,_ZNSt5mutexC2Ev
FNDA:24,_ZNSt5mutex4lockEv
FNDA:24,_ZNSt5mutex6unlockEv
FNDA:3,_ZNSt12__mutex_baseC2Ev
FNF:4
FNH:4
DA:67,3
DA:104,3
DA:111,24
DA:113,24
DA:116,24
DA:117,0
DA:118,24
DA:129,24
DA:132,24
DA:133,24
LF:10
LH:9
end_of_record
TN:
SF:/usr/include/c++/13/bits/std_thread.h
FN:132,132,_ZNSt6threadC2Ev
FN:143,148,_ZNSt6thread24_M_thread_deps_never_runEv
FN:154,167,_ZNSt6threadC2IZN12ActiveObjectC4EvEUlvE_JEvEEOT_DpOT0_
FN:170,174,_ZNSt6threadD2Ev
FN:183,189,_ZNSt6threadaSEOS_
FN:192,193,_ZNSt6thread4swapERS_
FN:196,197,_ZNKSt6thread8joinableEv
FN:239,241,_ZNSt6thread11_State_implINS_8_InvokerISt5tupleIJZN12ActiveObjectC4EvEUlvE_EEEEEC2IJS4_EEEDpOT_
FN:244,244,_ZNSt6thread11_State_implINS_8_InvokerISt5tupleIJZN12ActiveObjectC4EvEUlvE_EEEEE6_M_runEv
FN:276,278,_ZNSt6thread8_InvokerISt5tupleIJZN12ActiveObjectC4EvEUlvE_EEEC2IJS3_EEEDpOT_
FN:291,292,_ZNSt6thread8_InvokerISt5tupleIJZN12ActiveObjectC4EvEUlvE_EEE9_M_invokeIJLm0EEEEvSt12_Index_tupleIJXspT_EEE
FN:295,300,_ZNSt6thread8_InvokerISt5tupleIJZN12ActiveObjectC4EvEUlvE_EEEclEv
FN:324,331,_ZSteqNSt6thread2idES0_
FN:97,97,_ZNSt6thread2idC2Ev
FNDA:3,_ZNSt6threadC2Ev
FNDA:0,_ZNSt6thread24_M_thread_deps_never_runEv
FNDA:3,_ZNSt6threadC2IZN12ActiveObjectC4EvEUlvE_JEvEEOT_DpOT0_
FNDA:6,_ZNSt6threadD2Ev
FNDA:3,_ZNSt6threadaSEOS_
FNDA:3,_ZNSt6thread4swapERS_
FNDA:12,_ZNKSt6thread8joinableEv
FNDA:3,_ZNSt6thread11_State_implINS_8_InvokerISt5tupleIJZN12ActiveObjectC4EvEUlvE_EEEEEC2IJS4_EEEDpOT_
FNDA:3,_ZNSt6thread11_State_implINS_8_InvokerISt5tupleIJZN12ActiveObjectC4EvEUlvE_EEEEE6_M_runEv
FNDA:3,_ZNSt6thread8_InvokerISt5tupleIJZN12ActiveObjectC4EvEUlvE_EEEC2IJS3_EEEDpOT_
FNDA:3,_ZNSt6thread8_InvokerISt5tupleIJZN12ActiveObjectC4EvEUlvE_EEE9_M_invokeIJLm0EEEEvSt12_Index_tupleIJXspT_EEE
FNDA:3,_ZNSt6thread8_InvokerISt5tupleIJZN12ActiveObjectC4EvEUlvE_EEEclEv
FNDA:12,_ZSteqNSt6thread2idES0_
FNDA:18,_ZNSt6thread2idC2Ev
FNF:14
FNH:13
DA:97,18
DA:132,3
DA:143,0
DA:148,0
DA:154,3
DA:155,3
DA:164,3
DA:167,3
DA:170,6
DA:172,6
DA:174,6
DA:183,3
DA:185,3
DA:187,3
DA:188,3
DA:192,3
DA:193,3
DA:196,12
DA:197,12
DA:239,3
DA:240,3
DA:241,3
DA:244,3
DA:276,3
DA:277,3
DA:278,3
DA:291,3
DA:292,3
DA:295,3
DA:299,3
DA:324,12
DA:330,12
LF:32
LH:30
end_of_record
TN:
SF:/usr/include/c++/13/bits/stl_algobase.h
FN:1000,1008,_ZSt4fillIN9__gnu_cxx17__normal_iteratorIPiSt6vectorIiSaIiEEEEiEvT_S7_RKT0_
FN:1000,1008,_ZSt4fillIPSt6vectorIiSaIiEES2_EvT_S4_RKT0_
FN:1018,1018,_ZSt17__size_to_integerm
FN:1117,1130,_ZSt10__fill_n_aIPimiET_S1_T0_RKT1_St26random_access_iterator_tag
FN:1152,1159,_ZSt6fill_nIPimiET_S1_T0_RKT1_
FN:233,241,_ZSt3minIiERKT_S2_S2_
FN:233,241,_ZSt3minImERKT_S2_S2_
FN:257,265,_ZSt3maxImERKT_S2_S2_
FN:316,318,_ZSt12__niter_baseIP4EdgeET_S2_
FN:316,318,_ZSt12__niter_baseIPPSt8functionIFvvEEET_S5_
FN:316,318,_ZSt12__niter_baseIPPiET_S2_
FN:316,318,_ZSt12__niter_baseIPSt5tupleIJiiiiEEET_S3_
FN:316,318,_ZSt12__niter_baseIPSt6vectorIiSaIiEEET_S4_
FN:316,318,_ZSt12__niter_baseIPiET_S1_
FN:331,332,_ZSt12__niter_wrapIN9__gnu_cxx17__normal_iteratorIPiSt6vectorIiSaIiEEEES2_ET_S7_T0_
FN:338,339,_ZSt12__niter_wrapIPPSt8functionIFvvEEET_RKS5_S5_
FN:338,339,_ZSt12__niter_wrapIPPiET_RKS2_S2_
FN:338,339,_ZSt12__niter_wrapIPSt6vectorIiSaIiEEET_RKS4_S4_
FN:338,339,_ZSt12__niter_wrapIPiET_RKS1_S1_
FN:397,398,_ZNSt11__copy_moveILb0ELb0ESt26random_access_iterator_tagE12__assign_oneIPSt8functionIFvvEES6_EEvPT_PT0_
FN:397,398,_ZNSt11__copy_moveILb0ELb0ESt26random_access_iterator_tagE12__assign_oneIPiS3_EEvPT_PT0_
FN:397,398,_ZNSt11__copy_moveILb0ELb0ESt26random_access_iterator_tagE12__assign_oneIiKiEEvPT_PT0_
FN:397,398,_ZNSt11__copy_moveILb0ELb0ESt26random_access_iterator_tagE12__assign_oneIiiEEvPT_PT0_
FN:433,442,_ZNSt11__copy_moveILb0ELb1ESt26random_access_iterator_tagE8__copy_mIKiiEEPT0_PT_S7_S5_
FN:433,442,_ZNSt11__copy_moveILb0ELb1ESt26random_access_iterator_tagE8__copy_mIPSt8functionIFvvEES6_EEPT0_PT_SA_S8_
FN:433,442,_ZNSt11__copy_moveILb0ELb1ESt26random_access_iterator_tagE8__copy_mIPiS3_EEPT0_PT_S7_S5_
FN:433,442,_ZNSt11__copy_moveILb0ELb1ESt26random_access_iterator_tagE8__copy_mIiiEEPT0_PT_S6_S4_
FN:497,507,_ZSt14__copy_move_a2ILb0EPKiPiET1_T0_S4_S3_
FN:497,507,_ZSt14__copy_move_a2ILb0EPPSt8functionIFvvEES4_ET1_T0_S6_S5_
FN:497,507,_ZSt14__copy_move_a2ILb0EPPiS1_ET1_T0_S3_S2_
FN:497,507,_ZSt14__copy_move_a2ILb0EPiS0_ET1_T0_S2_S1_
FN:532,533,_ZSt14__copy_move_a1ILb0EPKiPiET1_T0_S4_S3_
FN:532,533,_ZSt14__copy_move_a1ILb0EPPSt8functionIFvvEES4_ET1_T0_S6_S5_
FN:532,533,_ZSt14__copy_move_a1ILb0EPPiS1_ET1_T0_S3_S2_
FN:532,533,_ZSt14__copy_move_a1ILb0EPiS0_ET1_T0_S2_S1_
FN:538,544,_ZSt13__copy_move_aILb0EN9__gnu_cxx17__normal_iteratorIPKiSt6vectorIiSaIiEEEENS1_IPiS6_EEET1_T0_SB_SA_
FN:538,544,_ZSt13__copy_move_aILb0EN9__gnu_cxx17__normal_iteratorIPKiSt6vectorIiSaIiEEEEPiET1_T0_SA_S9_
FN:538,544,_ZSt13__copy_move_aILb0EPPSt8functionIFvvEES4_ET1_T0_S6_S5_
FN:538,544,_ZSt13__copy_move_aILb0EPPiS1_ET1_T0_S3_S2_
FN:538,544,_ZSt13__copy_move_aILb0EPiS0_ET1_T0_S2_S1_
FN:624,634,_ZSt4copyIN9__gnu_cxx17__normal_iteratorIPKiSt6vectorIiSaIiEEEENS1_IPiS6_EEET0_T_SB_SA_
FN:624,634,_ZSt4copyIN9__gnu_cxx17__normal_iteratorIPKiSt6vectorIiSaIiEEEEPiET0_T_SA_S9_
FN:624,634,_ZSt4copyIPPSt8functionIFvvEES4_ET0_T_S6_S5_
FN:624,634,_ZSt4copyIPPiS1_ET0_T_S3_S2_
FN:624,634,_ZSt4copyIPiS0_ET0_T_S2_S1_
FN:727,734,_ZNSt20__copy_move_backwardILb1ELb0ESt26random_access_iterator_tagE13__copy_move_bIPSt6vectorIiSaIiEES6_EET0_T_S8_S7_
FN:744,753,_ZNSt20__copy_move_backwardILb0ELb1ESt26random_access_iterator_tagE13__copy_move_bIPSt8functionIFvvEES6_EEPT0_PT_SA_S8_
FN:744,753,_ZNSt20__copy_move_backwardILb0ELb1ESt26random_access_iterator_tagE13__copy_move_bIPiS3_EEPT0_PT_S7_S5_
FN:759,772,_ZSt23__copy_move_backward_a2ILb0EPPSt8functionIFvvEES4_ET1_T0_S6_S5_
FN:759,772,_ZSt23__copy_move_backward_a2ILb0EPPiS1_ET1_T0_S3_S2_
FN:759,772,_ZSt23__copy_move_backward_a2ILb1EPSt6vectorIiSaIiEES3_ET1_T0_S5_S4_
FN:777,778,_ZSt23__copy_move_backward_a1ILb0EPPSt8functionIFvvEES4_ET1_T0_S6_S5_
FN:777,778,_ZSt23__copy_move_backward_a1ILb0EPPiS1_ET1_T0_S3_S2_
FN:777,778,_ZSt23__copy_move_backward_a1ILb1EPSt6vectorIiSaIiEES3_ET1_T0_S5_S4_
FN:805,811,_ZSt22__copy_move_backward_aILb0EPPSt8functionIFvvEES4_ET1_T0_S6_S5_
FN:805,811,_ZSt22__copy_move_backward_aILb0EPPiS1_ET1_T0_S3_S2_
FN:805,811,_ZSt22__copy_move_backward_aILb1EPSt6vectorIiSaIiEES3_ET1_T0_S5_S4_
FN:857,868,_ZSt13copy_backwardIPPSt8functionIFvvEES4_ET0_T_S6_S5_
FN:857,868,_ZSt13copy_backwardIPPiS1_ET0_T_S3_S2_
FN:892,904,_ZSt13move_backwardIPSt6vectorIiSaIiEES3_ET0_T_S5_S4_
FN:915,920,_ZSt9__fill_a1IPSt6vectorIiSaIiEES2_EN9__gnu_cxx11__enable_ifIXntsrSt11__is_scalarIT0_E7__valueEvE6__typeET_SB_RKS7_
FN:926,932,_ZSt9__fill_a1IPiiEN9__gnu_cxx11__enable_ifIXsrSt11__is_scalarIT0_E7__valueEvE6__typeET_S8_RKS4_
FN:957,960,_ZSt9__fill_a1IPiSt6vectorIiSaIiEEiEvN9__gnu_cxx17__normal_iteratorIT_T0_EES8_RKT1_
FN:976,977,_ZSt8__fill_aIN9__gnu_cxx17__normal_iteratorIPiSt6vectorIiSaIiEEEEiEvT_S7_RKT0_
FN:976,977,_ZSt8__fill_aIPSt6vectorIiSaIiEES2_EvT_S4_RKT0_
FN:976,977,_ZSt8__fill_aIPiiEvT_S1_RKT0_
FNDA:4,_ZSt4fillIN9__gnu_cxx17__normal_iteratorIPiSt6vectorIiSaIiEEEEiEvT_S7_RKT0_
FNDA:0,_ZSt4fillIPSt6vectorIiSaIiEES2_EvT_S4_RKT0_
FNDA:7,_ZSt17__size_to_integerm
FNDA:7,_ZSt10__fill_n_aIPimiET_S1_T0_RKT1_St26random_access_iterator_tag
FNDA:7,_ZSt6fill_nIPimiET_S1_T0_RKT1_
FNDA:8,_ZSt3minIiERKT_S2_S2_
FNDA:30,_ZSt3minImERKT_S2_S2_
FNDA:15,_ZSt3maxImERKT_S2_S2_
FNDA:12,_ZSt12__niter_baseIP4EdgeET_S2_
FNDA:0,_ZSt12__niter_baseIPPSt8functionIFvvEEET_S5_
FNDA:0,_ZSt12__niter_baseIPPiET_S2_
FNDA:24,_ZSt12__niter_baseIPSt5tupleIJiiiiEEET_S3_
FNDA:0,_ZSt12__niter_baseIPSt6vectorIiSaIiEEET_S4_
FNDA:25,_ZSt12__niter_baseIPiET_S1_
FNDA:0,_ZSt12__niter_wrapIN9__gnu_cxx17__normal_iteratorIPiSt6vectorIiSaIiEEEES2_ET_S7_T0_
FNDA:0,_ZSt12__niter_wrapIPPSt8functionIFvvEEET_RKS5_S5_
FNDA:0,_ZSt12__niter_wrapIPPiET_RKS2_S2_
FNDA:0,_ZSt12__niter_wrapIPSt6vectorIiSaIiEEET_RKS4_S4_
FNDA:13,_ZSt12__niter_wrapIPiET_RKS1_S1_
FNDA:0,_ZNSt11__copy_moveILb0ELb0ESt26random_access_iterator_tagE12__assign_oneIPSt8functionIFvvEES6_EEvPT_PT0_
FNDA:0,_ZNSt11__copy_moveILb0ELb0ESt26random_access_iterator_tagE12__assign_oneIPiS3_EEvPT_PT0_
FNDA:1,_ZNSt11__copy_moveILb0ELb0ESt26random_access_iterator_tagE12__assign_oneIiKiEEvPT_PT0_
FNDA:0,_ZNSt11__copy_moveILb0ELb0ESt26random_access_iterator_tagE12__assign_oneIiiEEvPT_PT0_
FNDA:13,_ZNSt11__copy_moveILb0ELb1ESt26random_access_iterator_tagE8__copy_mIKiiEEPT0_PT_S7_S5_
FNDA:0,_ZNSt11__copy_moveILb0ELb1ESt26random_access_iterator_tagE8__copy_mIPSt8functionIFvvEES6_EEPT0_PT_SA_S8_
FNDA:0,_ZNSt11__copy_moveILb0ELb1ESt26random_access_iterator_tagE8__copy_mIPiS3_EEPT0_PT_S7_S5_
FNDA:0,_ZNSt11__copy_moveILb0ELb1ESt26random_access_iterator_tagE8__copy_mIiiEEPT0_PT_S6_S4_
FNDA:13,_ZSt14__copy_move_a2ILb0EPKiPiET1_T0_S4_S3_
FNDA:0,_ZSt14__copy_move_a2ILb0EPPSt8functionIFvvEES4_ET1_T0_S6_S5_
FNDA:0,_ZSt14__copy_move_a2ILb0EPPiS1_ET1_T0_S3_S2_
FNDA:0,_ZSt14__copy_move_a2ILb0EPiS0_ET1_T0_S2_S1_
FNDA:13,_ZSt14__copy_move_a1ILb0EPKiPiET1_T0_S4_S3_
FNDA:0,_ZSt14__copy_move_a1ILb0EPPSt8functionIFvvEES4_ET1_T0_S6_S5_
FNDA:0,_ZSt14__copy_move_a1ILb0EPPiS1_ET1_T0_S3_S2_
FNDA:0,_ZSt14__copy_move_a1ILb0EPiS0_ET1_T0_S2_S1_
FNDA:0,_ZSt13__copy_move_aILb0EN9__gnu_cxx17__normal_iteratorIPKiSt6vectorIiSaIiEEEENS1_IPiS6_EEET1_T0_SB_SA_
FNDA:13,_ZSt13__copy_move_aILb0EN9__gnu_cxx17__normal_iteratorIPKiSt6vectorIiSaIiEEEEPiET1_T0_SA_S9_
FNDA:0,_ZSt13__copy_move_aILb0EPPSt8functionIFvvEES4_ET1_T0_S6_S5_
FNDA:0,_ZSt13__copy_move_aILb0EPPiS1_ET1_T0_S3_S2_
FNDA:0,_ZSt13__copy_move_aILb0EPiS0_ET1_T0_S2_S1_
FNDA:0,_ZSt4copyIN9__gnu_cxx17__normal_iteratorIPKiSt6vectorIiSaIiEEEENS1_IPiS6_EEET0_T_SB_SA_
FNDA:13,_ZSt4copyIN9__gnu_cxx17__normal_iteratorIPKiSt6vectorIiSaIiEEEEPiET0_T_SA_S9_
FNDA:0,_ZSt4copyIPPSt8functionIFvvEES4_ET0_T_S6_S5_
FNDA:0,_ZSt4copyIPPiS1_ET0_T_S3_S2_
FNDA:0,_ZSt4copyIPiS0_ET0_T_S2_S1_
FNDA:0,_ZNSt20__copy_move_backwardILb1ELb0ESt26random_access_iterator_tagE13__copy_move_bIPSt6vectorIiSaIiEES6_EET0_T_S8_S7_
FNDA:0,_ZNSt20__copy_move_backwardILb0ELb1ESt26random_access_iterator_tagE13__copy_move_bIPSt8functionIFvvEES6_EEPT0_PT_SA_S8_
FNDA:0,_ZNSt20__copy_move_backwardILb0ELb1ESt26random_access_iterator_tagE13__copy_move_bIPiS3_EEPT0_PT_S7_S5_
FNDA:0,_ZSt23__copy_move_backward_a2ILb0EPPSt8functionIFvvEES4_ET1_T0_S6_S5_
FNDA:0,_ZSt23__copy_move_backward_a2ILb0EPPiS1_ET1_T0_S3_S2_
FNDA:0,_ZSt23__copy_move_backward_a2ILb1EPSt6vectorIiSaIiEES3_ET1_T0_S5_S4_
FNDA:0,_ZSt23__copy_move_backward_a1ILb0EPPSt8functionIFvvEES4_ET1_T0_S6_S5_
FNDA:0,_ZSt23__copy_move_backward_a1ILb0EPPiS1_ET1_T0_S3_S2_
FNDA:0,_ZSt23__copy_move_backward_a1ILb1EPSt6vectorIiSaIiEES3_ET1_T0_S5_S4_
FNDA:0,_ZSt22__copy_move_backward_aILb0EPPSt8functionIFvvEES4_ET1_T0_S6_S5_
FNDA:0,_ZSt22__copy_move_backward_aILb0EPPiS1_ET1_T0_S3_S2_
FNDA:0,_ZSt22__copy_move_backward_aILb1EPSt6vectorIiSaIiEES3_ET1_T0_S5_S4_
FNDA:0,_ZSt13copy_backwardIPPSt8functionIFvvEES4_ET0_T_S6_S5_
FNDA:0,_ZSt13copy_backwardIPPiS1_ET0_T_S3_S2_
FNDA:0,_ZSt13move_backwardIPSt6vectorIiSaIiEES3_ET0_T_S5_S4_
FNDA:0,_ZSt9__fill_a1IPSt6vectorIiSaIiEES2_EN9__gnu_cxx11__enable_ifIXntsrSt11__is_scalarIT0_E7__valueEvE6__typeET_SB_RKS7_
FNDA:10,_ZSt9__fill_a1IPiiEN9__gnu_cxx11__enable_ifIXsrSt11__is_scalarIT0_E7__valueEvE6__typeET_S8_RKS4_
FNDA:4,_ZSt9__fill_a1IPiSt6vectorIiSaIiEEiEvN9__gnu_cxx17__normal_iteratorIT_T0_EES8_RKT1_
FNDA:4,_ZSt8__fill_aIN9__gnu_cxx17__normal_iteratorIPiSt6vectorIiSaIiEEEEiEvT_S7_RKT0_
FNDA:0,_ZSt8__fill_aIPSt6vectorIiSaIiEES2_EvT_S4_RKT0_
FNDA:6,_ZSt8__fill_aIPiiEvT_S1_RKT0_
FNF:66
FNH:21
DA:233,38
DA:238,38
DA:239,0
DA:240,38
DA:257,15
DA:262,15
DA:263,10
DA:264,5
DA:316,61
DA:318,61
DA:331,0
DA:332,0
DA:338,13
DA:339,13
DA:397,1
DA:398,1
DA:433,13
DA:435,13
DA:436,13
DA:437,12
DA:438,1
DA:440,1
DA:441,13
DA:497,13
DA:506,13
DA:532,13
DA:533,13
DA:538,13
DA:540,13
DA:543,13
DA:624,13
DA:633,13
DA:727,0
DA:730,0
DA:731,0
DA:732,0
DA:733,0
DA:744,0
DA:746,0
DA:747,0
DA:748,0
DA:749,0
DA:751,0
DA:752,0
DA:759,0
DA:769,0
DA:771,0
DA:777,0
DA:778,0
DA:805,0
DA:807,0
DA:810,0
DA:857,0
DA:867,0
DA:892,0
DA:901,0
DA:903,0
DA:915,0
DA:918,0
DA:919,0
DA:920,0
DA:926,10
DA:929,10
DA:930,29
DA:931,19
DA:932,10
DA:957,4
DA:960,4
DA:976,10
DA:977,10
DA:1000,4
DA:1007,4
DA:1008,4
DA:1018,7
DA:1117,7
DA:1123,7
DA:1124,1
DA:1128,6
DA:1129,6
DA:1152,7
DA:1157,7
DA:1158,14
LF:82
LH:50
end_of_record
TN:
SF:/usr/include/c++/13/bits/stl_bvector.h
FN:104,111,_ZNSt14_Bit_referenceaSEb
FN:1086,1087,_ZNSt6vectorIbSaIbEEixEm
FN:1349,1359,_ZNSt6vectorIbSaIbEE13_M_initializeEm
FN:1363,1367,_ZNSt6vectorIbSaIbEE19_M_initialize_valueEb
FN:1587,1598,_ZSt16__fill_bvector_nPmmb
FN:195,196,_ZNSt18_Bit_iterator_baseC2EPmj
FN:224,236,_ZNSt18_Bit_iterator_base7_M_incrEl
FN:313,313,_ZNSt13_Bit_iteratorC2Ev
FN:316,317,_ZNSt13_Bit_iteratorC2EPmj
FN:326,330,_ZNKSt13_Bit_iteratordeEv
FN:368,372,_ZNSt13_Bit_iteratorpLEl
FN:384,385,_ZNKSt13_Bit_iteratorixEl
FN:389,394,_ZStplRKSt13_Bit_iteratorl
FN:551,553,_ZNSt13_Bvector_baseISaIbEE18_Bvector_impl_dataC2Ev
FN:577,578,_ZNSt13_Bvector_baseISaIbEE18_Bvector_impl_data8_M_resetEv
FN:603,605,_ZNSt13_Bvector_baseISaIbEE13_Bvector_implC2ERKSaImE
FN:623,628,_ZNKSt13_Bvector_baseISaIbEE13_Bvector_impl11_M_end_addrEv
FN:656,657,_ZNSt13_Bvector_baseISaIbEEC2ERKS0_
FN:669,670,_ZNSt13_Bvector_baseISaIbEED2Ev
FN:677,689,_ZNSt13_Bvector_baseISaIbEE11_M_allocateEm
FN:693,703,_ZNSt13_Bvector_baseISaIbEE13_M_deallocateEv
FN:714,715,_ZNSt13_Bvector_baseISaIbEE8_S_nwordEm
FN:795,806,_ZNSt6vectorIbSaIbEEC2EmRKbRKS0_
FN:88,89,_ZNSt14_Bit_referenceC2EPmm
FN:890,890,_ZNSt6vectorIbSaIbEED2Ev
FN:99,100,_ZNKSt14_Bit_referencecvbEv
FN:995,996,_ZNSt6vectorIbSaIbEE5beginEv
FNDA:2,_ZNSt14_Bit_referenceaSEb
FNDA:4,_ZNSt6vectorIbSaIbEEixEm
FNDA:1,_ZNSt6vectorIbSaIbEE13_M_initializeEm
FNDA:1,_ZNSt6vectorIbSaIbEE19_M_initialize_valueEb
FNDA:1,_ZSt16__fill_bvector_nPmmb
FNDA:9,_ZNSt18_Bit_iterator_baseC2EPmj
FNDA:5,_ZNSt18_Bit_iterator_base7_M_incrEl
FNDA:4,_ZNSt13_Bit_iteratorC2Ev
FNDA:5,_ZNSt13_Bit_iteratorC2EPmj
FNDA:4,_ZNKSt13_Bit_iteratordeEv
FNDA:5,_ZNSt13_Bit_iteratorpLEl
FNDA:4,_ZNKSt13_Bit_iteratorixEl
FNDA:5,_ZStplRKSt13_Bit_iteratorl
FNDA:2,_ZNSt13_Bvector_baseISaIbEE18_Bvector_impl_dataC2Ev
FNDA:1,_ZNSt13_Bvector_baseISaIbEE18_Bvector_impl_data8_M_resetEv
FNDA:1,_ZNSt13_Bvector_baseISaIbEE13_Bvector_implC2ERKSaImE
FNDA:2,_ZNKSt13_Bvector_baseISaIbEE13_Bvector_impl11_M_end_addrEv
FNDA:1,_ZNSt13_Bvector_baseISaIbEEC2ERKS0_
FNDA:1,_ZNSt13_Bvector_baseISaIbEED2Ev
FNDA:1,_ZNSt13_Bvector_baseISaIbEE11_M_allocateEm
FNDA:1,_ZNSt13_Bvector_baseISaIbEE13_M_deallocateEv
FNDA:2,_ZNSt13_Bvector_baseISaIbEE8_S_nwordEm
FNDA:1,_ZNSt6vectorIbSaIbEEC2EmRKbRKS0_
FNDA:4,_ZNSt14_Bit_referenceC2EPmm
FNDA:1,_ZNSt6vectorIbSaIbEED2Ev
FNDA:2,_ZNKSt14_Bit_referencecvbEv
FNDA:4,_ZNSt6vectorIbSaIbEE5beginEv
FNF:27
FNH:27
DA:88,4
DA:89,4
DA:99,2
DA:100,2
DA:104,2
DA:106,2
DA:107,2
DA:109,0
DA:110,2
DA:189,9
DA:190,0
DA:192,9
DA:195,9
DA:196,9
DA:224,5
DA:227,5
DA:228,5
DA:229,5
DA:230,5
DA:232,0
DA:233,0
DA:235,5
DA:236,5
DA:313,4
DA:316,5
DA:317,5
DA:326,4
DA:328,4
DA:329,4
DA:368,5
DA:370,5
DA:371,5
DA:384,4
DA:385,4
DA:389,5
DA:391,5
DA:392,5
DA:393,5
DA:551,2
DA:552,2
DA:553,2
DA:577,1
DA:578,1
DA:603,1
DA:604,1
DA:605,1
DA:623,2
DA:625,2
DA:626,2
DA:627,0
DA:656,1
DA:657,2
DA:669,1
DA:670,1
DA:677,1
DA:679,1
DA:688,1
DA:693,1
DA:695,1
DA:697,1
DA:698,1
DA:699,1
DA:701,1
DA:703,1
DA:714,2
DA:715,2
DA:795,1
DA:802,1
DA:804,1
DA:805,1
DA:806,1
DA:890,1
DA:995,4
DA:996,4
DA:1086,4
DA:1087,4
DA:1349,1
DA:1351,1
DA:1353,1
DA:1354,1
DA:1355,1
DA:1356,1
DA:1357,1
DA:1359,1
DA:1363,1
DA:1365,1
DA:1366,1
DA:1367,1
DA:1587,1
DA:1597,1
DA:1598,1
LF:91
LH:86
end_of_record
TN:
SF:/usr/include/c++/13/bits/stl_construct.h
FN:109,120,_ZSt10_ConstructI4EdgeJEEvPT_DpOT0_
FN:109,120,_ZSt10_ConstructISt5tupleIJiiiiEEJRKS1_EEvPT_DpOT0_
FN:109,120,_ZSt10_ConstructISt6vectorI4EdgeSaIS1_EEJEEvPT_DpOT0_
FN:109,120,_ZSt10_ConstructISt6vectorIiSaIiEEJEEvPT_DpOT0_
FN:109,120,_ZSt10_ConstructISt6vectorIiSaIiEEJRKS2_EEvPT_DpOT0_
FN:109,120,_ZSt10_ConstructISt6vectorIiSaIiEEJS2_EEvPT_DpOT0_
FN:146,153,_ZSt8_DestroyISt6vectorI4EdgeSaIS1_EEEvPT_
FN:146,153,_ZSt8_DestroyISt6vectorIiSaIiEEEvPT_
FN:146,153,_ZSt8_DestroyISt8functionIFvvEEEvPT_
FN:160,164,_ZNSt12_Destroy_auxILb0EE9__destroyIPSt6vectorI4EdgeSaIS3_EEEEvT_S7_
FN:160,164,_ZNSt12_Destroy_auxILb0EE9__destroyIPSt6vectorIiSaIiEEEEvT_S6_
FN:160,164,_ZNSt12_Destroy_auxILb0EE9__destroyIPSt8functionIFvvEEEEvT_S6_
FN:172,172,_ZNSt12_Destroy_auxILb1EE9__destroyIN9__gnu_cxx17__normal_iteratorIPiSt6vectorIiSaIiEEEEEEvT_S9_
FN:172,172,_ZNSt12_Destroy_auxILb1EE9__destroyIP4EdgeEEvT_S4_
FN:172,172,_ZNSt12_Destroy_auxILb1EE9__destroyIPSt5tupleIJiiiiEEEEvT_S5_
FN:172,172,_ZNSt12_Destroy_auxILb1EE9__destroyIPiEEvT_S3_
FN:182,197,_ZSt8_DestroyIN9__gnu_cxx17__normal_iteratorIPiSt6vectorIiSaIiEEEEEvT_S7_
FN:182,197,_ZSt8_DestroyIP4EdgeEvT_S2_
FN:182,197,_ZSt8_DestroyIPSt5tupleIJiiiiEEEvT_S3_
FN:182,197,_ZSt8_DestroyIPSt6vectorI4EdgeSaIS1_EEEvT_S5_
FN:182,197,_ZSt8_DestroyIPSt6vectorIiSaIiEEEvT_S4_
FN:182,197,_ZSt8_DestroyIPSt8functionIFvvEEEvT_S4_
FN:182,197,_ZSt8_DestroyIPiEvT_S1_
FNDA:2,_ZSt10_ConstructI4EdgeJEEvPT_DpOT0_
FNDA:0,_ZSt10_ConstructISt5tupleIJiiiiEEJRKS1_EEvPT_DpOT0_
FNDA:2,_ZSt10_ConstructISt6vectorI4EdgeSaIS1_EEJEEvPT_DpOT0_
FNDA:2,_ZSt10_ConstructISt6vectorIiSaIiEEJEEvPT_DpOT0_
FNDA:13,_ZSt10_ConstructISt6vectorIiSaIiEEJRKS2_EEvPT_DpOT0_
FNDA:0,_ZSt10_ConstructISt6vectorIiSaIiEEJS2_EEvPT_DpOT0_
FNDA:2,_ZSt8_DestroyISt6vectorI4EdgeSaIS1_EEEvPT_
FNDA:15,_ZSt8_DestroyISt6vectorIiSaIiEEEvPT_
FNDA:0,_ZSt8_DestroyISt8functionIFvvEEEvPT_
FNDA:1,_ZNSt12_Destroy_auxILb0EE9__destroyIPSt6vectorI4EdgeSaIS3_EEEEvT_S7_
FNDA:17,_ZNSt12_Destroy_auxILb0EE9__destroyIPSt6vectorIiSaIiEEEEvT_S6_
FNDA:3,_ZNSt12_Destroy_auxILb0EE9__destroyIPSt8functionIFvvEEEEvT_S6_
FNDA:0,_ZNSt12_Destroy_auxILb1EE9__destroyIN9__gnu_cxx17__normal_iteratorIPiSt6vectorIiSaIiEEEEEEvT_S9_
FNDA:3,_ZNSt12_Destroy_auxILb1EE9__destroyIP4EdgeEEvT_S4_
FNDA:11,_ZNSt12_Destroy_auxILb1EE9__destroyIPSt5tupleIJiiiiEEEEvT_S5_
FNDA:22,_ZNSt12_Destroy_auxILb1EE9__destroyIPiEEvT_S3_
FNDA:0,_ZSt8_DestroyIN9__gnu_cxx17__normal_iteratorIPiSt6vectorIiSaIiEEEEEvT_S7_
FNDA:3,_ZSt8_DestroyIP4EdgeEvT_S2_
FNDA:11,_ZSt8_DestroyIPSt5tupleIJiiiiEEEvT_S3_
FNDA:1,_ZSt8_DestroyIPSt6vectorI4EdgeSaIS1_EEEvT_S5_
FNDA:17,_ZSt8_DestroyIPSt6vectorIiSaIiEEEvT_S4_
FNDA:3,_ZSt8_DestroyIPSt8functionIFvvEEEvT_S4_
FNDA:22,_ZSt8_DestroyIPiEvT_S1_
FNF:23
FNH:18
DA:109,19
DA:119,19
DA:120,19
DA:146,17
DA:151,17
DA:153,17
DA:160,21
DA:162,38
DA:163,17
DA:164,21
DA:172,36
DA:182,57
DA:196,57
DA:197,57
LF:14
LH:14
end_of_record
TN:
SF:/usr/include/c++/13/bits/stl_deque.h
FN:1027,1028,_ZNSt5dequeISt8functionIFvvEESaIS2_EED2Ev
FN:1027,1028,_ZNSt5dequeIiSaIiEED2Ev
FN:1151,1152,_ZNSt5dequeISt8functionIFvvEESaIS2_EE5beginEv
FN:1151,1152,_ZNSt5dequeIiSaIiEE5beginEv
FN:1170,1171,_ZNSt5dequeISt8functionIFvvEESaIS2_EE3endEv
FN:1170,1171,_ZNSt5dequeIiSaIiEE3endEv
FN:1268,1269,_ZNKSt5dequeISt8functionIFvvEESaIS2_EE4sizeEv
FN:1268,1269,_ZNKSt5dequeIiSaIiEE4sizeEv
FN:1274,1275,_ZNKSt5dequeISt8functionIFvvEESaIS2_EE8max_sizeEv
FN:1274,1275,_ZNKSt5dequeIiSaIiEE8max_sizeEv
FN:131,132,_ZNSt15_Deque_iteratorISt8functionIFvvEERS2_PS2_E14_S_buffer_sizeEv
FN:131,132,_ZNSt15_Deque_iteratorIiRiPiE14_S_buffer_sizeEv
FN:1347,1348,_ZNKSt5dequeISt8functionIFvvEESaIS2_EE5emptyEv
FN:1347,1348,_ZNKSt5dequeIiSaIiEE5emptyEv
FN:1444,1448,_ZNSt5dequeISt8functionIFvvEESaIS2_EE5frontEv
FN:1444,1448,_ZNSt5dequeIiSaIiEE5frontEv
FN:151,152,_ZNSt15_Deque_iteratorISt8functionIFvvEERS2_PS2_EC2Ev
FN:151,152,_ZNSt15_Deque_iteratorIiRiPiEC2Ev
FN:1538,1549,_ZNSt5dequeISt8functionIFvvEESaIS2_EE9push_backERKS2_
FN:1538,1549,_ZNSt5dequeIiSaIiEE9push_backERKi
FN:1574,1586,_ZNSt5dequeISt8functionIFvvEESaIS2_EE9pop_frontEv
FN:1574,1586,_ZNSt5dequeIiSaIiEE9pop_frontEv
FN:168,170,_ZNSt15_Deque_iteratorISt8functionIFvvEERS2_PS2_EC2ERKS5_
FN:168,170,_ZNSt15_Deque_iteratorIiRiPiEC2ERKS2_
FN:181,182,_ZNKSt15_Deque_iteratorISt8functionIFvvEERS2_PS2_EdeEv
FN:181,182,_ZNKSt15_Deque_iteratorIiRiPiEdeEv
FN:1876,1881,_ZNSt5dequeISt8functionIFvvEESaIS2_EE11_S_max_sizeERKS3_
FN:1876,1881,_ZNSt5dequeIiSaIiEE11_S_max_sizeERKS0_
FN:2087,2092,_ZNSt5dequeISt8functionIFvvEESaIS2_EE15_M_destroy_dataESt15_Deque_iteratorIS2_RS2_PS2_ES8_RKS3_
FN:2087,2092,_ZNSt5dequeIiSaIiEE15_M_destroy_dataESt15_Deque_iteratorIiRiPiES5_RKS0_
FN:2168,2173,_ZNSt5dequeISt8functionIFvvEESaIS2_EE22_M_reserve_map_at_backEm
FN:2168,2173,_ZNSt5dequeIiSaIiEE22_M_reserve_map_at_backEm
FN:263,268,_ZNSt15_Deque_iteratorISt8functionIFvvEERS2_PS2_E11_M_set_nodeEPS4_
FN:263,268,_ZNSt15_Deque_iteratorIiRiPiE11_M_set_nodeEPS1_
FN:272,273,_ZSteqRKSt15_Deque_iteratorISt8functionIFvvEERS2_PS2_ES7_
FN:272,273,_ZSteqRKSt15_Deque_iteratorIiRiPiES4_
FN:370,376,_ZStmiRKSt15_Deque_iteratorISt8functionIFvvEERS2_PS2_ES7_
FN:370,376,_ZStmiRKSt15_Deque_iteratorIiRiPiES4_
FN:458,460,_ZNSt11_Deque_baseISt8functionIFvvEESaIS2_EEC2Ev
FN:458,460,_ZNSt11_Deque_baseIiSaIiEEC2Ev
FN:516,518,_ZNSt11_Deque_baseISt8functionIFvvEESaIS2_EE16_Deque_impl_dataC2Ev
FN:516,518,_ZNSt11_Deque_baseIiSaIiEE16_Deque_impl_dataC2Ev
FN:545,548,_ZNSt11_Deque_baseISt8functionIFvvEESaIS2_EE11_Deque_implC2Ev
FN:545,548,_ZNSt11_Deque_baseIiSaIiEE11_Deque_implC2Ev
FN:568,569,_ZNSt11_Deque_baseISt8functionIFvvEESaIS2_EE19_M_get_Tp_allocatorEv
FN:568,569,_ZNSt11_Deque_baseIiSaIiEE19_M_get_Tp_allocatorEv
FN:572,573,_ZNKSt11_Deque_baseISt8functionIFvvEESaIS2_EE19_M_get_Tp_allocatorEv
FN:572,573,_ZNKSt11_Deque_baseIiSaIiEE19_M_get_Tp_allocatorEv
FN:576,577,_ZNKSt11_Deque_baseISt8functionIFvvEESaIS2_EE20_M_get_map_allocatorEv
FN:576,577,_ZNKSt11_Deque_baseIiSaIiEE20_M_get_map_allocatorEv
FN:580,584,_ZNSt11_Deque_baseISt8functionIFvvEESaIS2_EE16_M_allocate_nodeEv
FN:580,584,_ZNSt11_Deque_baseIiSaIiEE16_M_allocate_nodeEv
FN:587,591,_ZNSt11_Deque_baseISt8functionIFvvEESaIS2_EE18_M_deallocate_nodeEPS2_
FN:587,591,_ZNSt11_Deque_baseIiSaIiEE18_M_deallocate_nodeEPi
FN:594,598,_ZNSt11_Deque_baseISt8functionIFvvEESaIS2_EE15_M_allocate_mapEm
FN:594,598,_ZNSt11_Deque_baseIiSaIiEE15_M_allocate_mapEm
FN:601,605,_ZNSt11_Deque_baseISt8functionIFvvEESaIS2_EE17_M_deallocate_mapEPPS2_m
FN:601,605,_ZNSt11_Deque_baseIiSaIiEE17_M_deallocate_mapEPPim
FN:617,626,_ZNSt11_Deque_baseISt8functionIFvvEESaIS2_EED2Ev
FN:617,626,_ZNSt11_Deque_baseIiSaIiEED2Ev
FN:638,673,_ZNSt11_Deque_baseISt8functionIFvvEESaIS2_EE17_M_initialize_mapEm
FN:638,673,_ZNSt11_Deque_baseIiSaIiEE17_M_initialize_mapEm
FN:677,691,_ZNSt11_Deque_baseISt8functionIFvvEESaIS2_EE15_M_create_nodesEPPS2_S6_
FN:677,691,_ZNSt11_Deque_baseIiSaIiEE15_M_create_nodesEPPiS3_
FN:695,701,_ZNSt11_Deque_baseISt8functionIFvvEESaIS2_EE16_M_destroy_nodesEPPS2_S6_
FN:695,701,_ZNSt11_Deque_baseIiSaIiEE16_M_destroy_nodesEPPiS3_
FN:828,829,_ZNSt5dequeISt8functionIFvvEESaIS2_EE14_S_buffer_sizeEv
FN:855,855,_ZNSt5dequeISt8functionIFvvEESaIS2_EEC2Ev
FN:855,855,_ZNSt5dequeIiSaIiEEC2Ev
FN:96,98,_ZSt16__deque_buf_sizem
FNDA:3,_ZNSt5dequeISt8functionIFvvEESaIS2_EED2Ev
FNDA:2,_ZNSt5dequeIiSaIiEED2Ev
FNDA:12,_ZNSt5dequeISt8functionIFvvEESaIS2_EE5beginEv
FNDA:6,_ZNSt5dequeIiSaIiEE5beginEv
FNDA:3,_ZNSt5dequeISt8functionIFvvEESaIS2_EE3endEv
FNDA:2,_ZNSt5dequeIiSaIiEE3endEv
FNDA:0,_ZNKSt5dequeISt8functionIFvvEESaIS2_EE4sizeEv
FNDA:0,_ZNKSt5dequeIiSaIiEE4sizeEv
FNDA:0,_ZNKSt5dequeISt8functionIFvvEESaIS2_EE8max_sizeEv
FNDA:0,_ZNKSt5dequeIiSaIiEE8max_sizeEv
FNDA:6,_ZNSt15_Deque_iteratorISt8functionIFvvEERS2_PS2_E14_S_buffer_sizeEv
FNDA:4,_ZNSt15_Deque_iteratorIiRiPiE14_S_buffer_sizeEv
FNDA:24,_ZNKSt5dequeISt8functionIFvvEESaIS2_EE5emptyEv
FNDA:6,_ZNKSt5dequeIiSaIiEE5emptyEv
FNDA:9,_ZNSt5dequeISt8functionIFvvEESaIS2_EE5frontEv
FNDA:4,_ZNSt5dequeIiSaIiEE5frontEv
FNDA:6,_ZNSt15_Deque_iteratorISt8functionIFvvEERS2_PS2_EC2Ev
FNDA:4,_ZNSt15_Deque_iteratorIiRiPiEC2Ev
FNDA:9,_ZNSt5dequeISt8functionIFvvEESaIS2_EE9push_backERKS2_
FNDA:4,_ZNSt5dequeIiSaIiEE9push_backERKi
FNDA:9,_ZNSt5dequeISt8functionIFvvEESaIS2_EE9pop_frontEv
FNDA:4,_ZNSt5dequeIiSaIiEE9pop_frontEv
FNDA:21,_ZNSt15_Deque_iteratorISt8functionIFvvEERS2_PS2_EC2ERKS5_
FNDA:8,_ZNSt15_Deque_iteratorIiRiPiEC2ERKS2_
FNDA:9,_ZNKSt15_Deque_iteratorISt8functionIFvvEERS2_PS2_EdeEv
FNDA:4,_ZNKSt15_Deque_iteratorIiRiPiEdeEv
FNDA:0,_ZNSt5dequeISt8functionIFvvEESaIS2_EE11_S_max_sizeERKS3_
FNDA:0,_ZNSt5dequeIiSaIiEE11_S_max_sizeERKS0_
FNDA:3,_ZNSt5dequeISt8functionIFvvEESaIS2_EE15_M_destroy_dataESt15_Deque_iteratorIS2_RS2_PS2_ES8_RKS3_
FNDA:2,_ZNSt5dequeIiSaIiEE15_M_destroy_dataESt15_Deque_iteratorIiRiPiES5_RKS0_
FNDA:0,_ZNSt5dequeISt8functionIFvvEESaIS2_EE22_M_reserve_map_at_backEm
FNDA:0,_ZNSt5dequeIiSaIiEE22_M_reserve_map_at_backEm
FNDA:6,_ZNSt15_Deque_iteratorISt8functionIFvvEERS2_PS2_E11_M_set_nodeEPS4_
FNDA:4,_ZNSt15_Deque_iteratorIiRiPiE11_M_set_nodeEPS1_
FNDA:24,_ZSteqRKSt15_Deque_iteratorISt8functionIFvvEERS2_PS2_ES7_
FNDA:6,_ZSteqRKSt15_Deque_iteratorIiRiPiES4_
FNDA:0,_ZStmiRKSt15_Deque_iteratorISt8functionIFvvEERS2_PS2_ES7_
FNDA:0,_ZStmiRKSt15_Deque_iteratorIiRiPiES4_
FNDA:3,_ZNSt11_Deque_baseISt8functionIFvvEESaIS2_EEC2Ev
FNDA:2,_ZNSt11_Deque_baseIiSaIiEEC2Ev
FNDA:3,_ZNSt11_Deque_baseISt8functionIFvvEESaIS2_EE16_Deque_impl_dataC2Ev
FNDA:2,_ZNSt11_Deque_baseIiSaIiEE16_Deque_impl_dataC2Ev
FNDA:3,_ZNSt11_Deque_baseISt8functionIFvvEESaIS2_EE11_Deque_implC2Ev
FNDA:2,_ZNSt11_Deque_baseIiSaIiEE11_Deque_implC2Ev
FNDA:15,_ZNSt11_Deque_baseISt8functionIFvvEESaIS2_EE19_M_get_Tp_allocatorEv
FNDA:6,_ZNSt11_Deque_baseIiSaIiEE19_M_get_Tp_allocatorEv
FNDA:6,_ZNKSt11_Deque_baseISt8functionIFvvEESaIS2_EE19_M_get_Tp_allocatorEv
FNDA:4,_ZNKSt11_Deque_baseIiSaIiEE19_M_get_Tp_allocatorEv
FNDA:6,_ZNKSt11_Deque_baseISt8functionIFvvEESaIS2_EE20_M_get_map_allocatorEv
FNDA:4,_ZNKSt11_Deque_baseIiSaIiEE20_M_get_map_allocatorEv
FNDA:3,_ZNSt11_Deque_baseISt8functionIFvvEESaIS2_EE16_M_allocate_nodeEv
FNDA:2,_ZNSt11_Deque_baseIiSaIiEE16_M_allocate_nodeEv
FNDA:3,_ZNSt11_Deque_baseISt8functionIFvvEESaIS2_EE18_M_deallocate_nodeEPS2_
FNDA:2,_ZNSt11_Deque_baseIiSaIiEE18_M_deallocate_nodeEPi
FNDA:3,_ZNSt11_Deque_baseISt8functionIFvvEESaIS2_EE15_M_allocate_mapEm
FNDA:2,_ZNSt11_Deque_baseIiSaIiEE15_M_allocate_mapEm
FNDA:3,_ZNSt11_Deque_baseISt8functionIFvvEESaIS2_EE17_M_deallocate_mapEPPS2_m
FNDA:2,_ZNSt11_Deque_baseIiSaIiEE17_M_deallocate_mapEPPim
FNDA:3,_ZNSt11_Deque_baseISt8functionIFvvEESaIS2_EED2Ev
FNDA:2,_ZNSt11_Deque_baseIiSaIiEED2Ev
FNDA:3,_ZNSt11_Deque_baseISt8functionIFvvEESaIS2_EE17_M_initialize_mapEm
FNDA:2,_ZNSt11_Deque_baseIiSaIiEE17_M_initialize_mapEm
FNDA:3,_ZNSt11_Deque_baseISt8functionIFvvEESaIS2_EE15_M_create_nodesEPPS2_S6_
FNDA:2,_ZNSt11_Deque_baseIiSaIiEE15_M_create_nodesEPPiS3_
FNDA:3,_ZNSt11_Deque_baseISt8functionIFvvEESaIS2_EE16_M_destroy_nodesEPPS2_S6_
FNDA:2,_ZNSt11_Deque_baseIiSaIiEE16_M_destroy_nodesEPPiS3_
FNDA:0,_ZNSt5dequeISt8functionIFvvEESaIS2_EE14_S_buffer_sizeEv
FNDA:3,_ZNSt5dequeISt8functionIFvvEESaIS2_EEC2Ev
FNDA:2,_ZNSt5dequeIiSaIiEEC2Ev
FNDA:30,_ZSt16__deque_buf_sizem
FNF:70
FNH:59
DA:96,30
DA:98,30
DA:131,10
DA:132,10
DA:151,10
DA:152,10
DA:168,29
DA:169,29
DA:170,29
DA:181,13
DA:182,13
DA:263,10
DA:265,10
DA:266,10
DA:267,10
DA:268,10
DA:272,30
DA:273,30
DA:370,0
DA:372,0
DA:373,0
DA:374,0
DA:375,0
DA:458,5
DA:459,5
DA:460,5
DA:516,5
DA:517,5
DA:518,5
DA:545,5
DA:547,5
DA:548,5
DA:568,21
DA:569,21
DA:572,10
DA:573,10
DA:576,10
DA:577,20
DA:580,5
DA:583,10
DA:587,5
DA:590,5
DA:591,5
DA:594,5
DA:596,5
DA:597,10
DA:601,5
DA:603,5
DA:605,5
DA:617,5
DA:620,5
DA:622,5
DA:623,5
DA:624,5
DA:626,5
DA:638,5
DA:641,5
DA:644,10
DA:645,5
DA:646,5
DA:653,5
DA:654,5
DA:655,5
DA:658,5
DA:659,0
DA:661,0
DA:662,0
DA:663,0
DA:664,0
DA:667,5
DA:668,5
DA:669,5
DA:670,10
DA:671,5
DA:672,5
DA:673,5
DA:677,5
DA:683,10
DA:684,5
DA:686,0
DA:688,0
DA:689,0
DA:691,5
DA:695,5
DA:699,10
DA:700,5
DA:701,5
DA:828,0
DA:829,0
DA:855,5
DA:1027,5
DA:1028,5
DA:1151,18
DA:1152,18
DA:1170,5
DA:1171,5
DA:1268,0
DA:1269,0
DA:1274,0
DA:1275,0
DA:1347,30
DA:1348,30
DA:1444,13
DA:1447,13
DA:1538,13
DA:1540,13
DA:1541,13
DA:1543,13
DA:1545,13
DA:1548,0
DA:1549,13
DA:1574,13
DA:1577,13
DA:1578,13
DA:1580,13
DA:1582,13
DA:1585,0
DA:1586,13
DA:1876,0
DA:1878,0
DA:1879,0
DA:1880,0
DA:2087,5
DA:2091,3
DA:2092,5
DA:2168,0
DA:2170,0
DA:2171,0
DA:2172,0
DA:2173,0
LF:130
LH:100
end_of_record
TN:
SF:/usr/include/c++/13/bits/stl_function.h
FN:1162,1163,_ZNKSt9_IdentityI4EdgeEclERS0_
FN:1166,1167,_ZNKSt9_IdentityI4EdgeEclERKS0_
FN:377,378,_ZNKSt8equal_toIiEclERKiS2_
FN:407,408,_ZNKSt4lessI4EdgeEclERKS0_S3_
FNDA:2,_ZNKSt9_IdentityI4EdgeEclERS0_
FNDA:0,_ZNKSt9_IdentityI4EdgeEclERKS0_
FNDA:1,_ZNKSt8equal_toIiEclERKiS2_
FNDA:0,_ZNKSt4lessI4EdgeEclERKS0_S3_
FNF:4
FNH:2
DA:377,1
DA:378,1
DA:407,0
DA:408,0
DA:1162,2
DA:1163,2
DA:1166,0
DA:1167,0
LF:8
LH:4
end_of_record
TN:
SF:/usr/include/c++/13/bits/stl_iterator.h
FN:1076,1077,_ZN9__gnu_cxx17__normal_iteratorIP4EdgeSt6vectorIS1_SaIS1_EEEC2ERKS2_
FN:1076,1077,_ZN9__gnu_cxx17__normal_iteratorIPK4EdgeSt6vectorIS1_SaIS1_EEEC2ERKS3_
FN:1076,1077,_ZN9__gnu_cxx17__normal_iteratorIPKSt5tupleIJiiiiEESt6vectorIS2_SaIS2_EEEC2ERKS4_
FN:1076,1077,_ZN9__gnu_cxx17__normal_iteratorIPKSt6vectorIiSaIiEES1_IS3_SaIS3_EEEC2ERKS5_
FN:1076,1077,_ZN9__gnu_cxx17__normal_iteratorIPKiSt6vectorIiSaIiEEEC2ERKS2_
FN:1076,1077,_ZN9__gnu_cxx17__normal_iteratorIPSt5tupleIJiiiiEESt6vectorIS2_SaIS2_EEEC2ERKS3_
FN:1076,1077,_ZN9__gnu_cxx17__normal_iteratorIPSt6vectorIiSaIiEES1_IS3_SaIS3_EEEC2ERKS4_
FN:1076,1077,_ZN9__gnu_cxx17__normal_iteratorIPiSt6vectorIiSaIiEEEC2ERKS1_
FN:1099,1100,_ZNK9__gnu_cxx17__normal_iteratorIP4EdgeSt6vectorIS1_SaIS1_EEEdeEv
FN:1099,1100,_ZNK9__gnu_cxx17__normal_iteratorIPK4EdgeSt6vectorIS1_SaIS1_EEEdeEv
FN:1099,1100,_ZNK9__gnu_cxx17__normal_iteratorIPKSt5tupleIJiiiiEESt6vectorIS2_SaIS2_EEEdeEv
FN:1099,1100,_ZNK9__gnu_cxx17__normal_iteratorIPKSt6vectorIiSaIiEES1_IS3_SaIS3_EEEdeEv
FN:1099,1100,_ZNK9__gnu_cxx17__normal_iteratorIPSt5tupleIJiiiiEESt6vectorIS2_SaIS2_EEEdeEv
FN:1099,1100,_ZNK9__gnu_cxx17__normal_iteratorIPiSt6vectorIiSaIiEEEdeEv
FN:1109,1113,_ZN9__gnu_cxx17__normal_iteratorIPK4EdgeSt6vectorIS1_SaIS1_EEEppEv
FN:1109,1113,_ZN9__gnu_cxx17__normal_iteratorIPKSt5tupleIJiiiiEESt6vectorIS2_SaIS2_EEEppEv
FN:1109,1113,_ZN9__gnu_cxx17__normal_iteratorIPKSt6vectorIiSaIiEES1_IS3_SaIS3_EEEppEv
FN:1109,1113,_ZN9__gnu_cxx17__normal_iteratorIPSt5tupleIJiiiiEESt6vectorIS2_SaIS2_EEEppEv
FN:1109,1113,_ZN9__gnu_cxx17__normal_iteratorIPiSt6vectorIiSaIiEEEppEv
FN:1147,1148,_ZNK9__gnu_cxx17__normal_iteratorIPiSt6vectorIiSaIiEEEplEl
FN:1157,1158,_ZNK9__gnu_cxx17__normal_iteratorIP4EdgeSt6vectorIS1_SaIS1_EEEmiEl
FN:1157,1158,_ZNK9__gnu_cxx17__normal_iteratorIPSt5tupleIJiiiiEESt6vectorIS2_SaIS2_EEEmiEl
FN:1162,1163,_ZNK9__gnu_cxx17__normal_iteratorIP4EdgeSt6vectorIS1_SaIS1_EEE4baseEv
FN:1162,1163,_ZNK9__gnu_cxx17__normal_iteratorIPK4EdgeSt6vectorIS1_SaIS1_EEE4baseEv
FN:1162,1163,_ZNK9__gnu_cxx17__normal_iteratorIPKSt5tupleIJiiiiEESt6vectorIS2_SaIS2_EEE4baseEv
FN:1162,1163,_ZNK9__gnu_cxx17__normal_iteratorIPKSt6vectorIiSaIiEES1_IS3_SaIS3_EEE4baseEv
FN:1162,1163,_ZNK9__gnu_cxx17__normal_iteratorIPKiSt6vectorIiSaIiEEE4baseEv
FN:1162,1163,_ZNK9__gnu_cxx17__normal_iteratorIPSt5tupleIJiiiiEESt6vectorIS2_SaIS2_EEE4baseEv
FN:1162,1163,_ZNK9__gnu_cxx17__normal_iteratorIPSt6vectorIiSaIiEES1_IS3_SaIS3_EEE4baseEv
FN:1162,1163,_ZNK9__gnu_cxx17__normal_iteratorIPiSt6vectorIiSaIiEEE4baseEv
FN:1241,1244,_ZN9__gnu_cxxneIPK4EdgeSt6vectorIS1_SaIS1_EEEEbRKNS_17__normal_iteratorIT_T0_EESC_
FN:1241,1244,_ZN9__gnu_cxxneIPKSt5tupleIJiiiiEESt6vectorIS2_SaIS2_EEEEbRKNS_17__normal_iteratorIT_T0_EESD_
FN:1241,1244,_ZN9__gnu_cxxneIPKSt6vectorIiSaIiEES1_IS3_SaIS3_EEEEbRKNS_17__normal_iteratorIT_T0_EESD_
FN:1241,1244,_ZN9__gnu_cxxneIPSt5tupleIJiiiiEESt6vectorIS2_SaIS2_EEEEbRKNS_17__normal_iteratorIT_T0_EESC_
FN:1241,1244,_ZN9__gnu_cxxneIPiSt6vectorIiSaIiEEEEbRKNS_17__normal_iteratorIT_T0_EESA_
FN:1334,1337,_ZN9__gnu_cxxmiIP4EdgeSt6vectorIS1_SaIS1_EEEENS_17__normal_iteratorIT_T0_E15difference_typeERKS9_SC_
FN:1334,1337,_ZN9__gnu_cxxmiIPSt5tupleIJiiiiEESt6vectorIS2_SaIS2_EEEENS_17__normal_iteratorIT_T0_E15difference_typeERKSA_SD_
FN:1334,1337,_ZN9__gnu_cxxmiIPSt6vectorIiSaIiEES1_IS3_SaIS3_EEEENS_17__normal_iteratorIT_T0_E15difference_typeERKSA_SD_
FN:1334,1337,_ZN9__gnu_cxxmiIPiSt6vectorIiSaIiEEEENS_17__normal_iteratorIT_T0_E15difference_typeERKS8_SB_
FN:1357,1359,_ZSt12__niter_baseIPKiSt6vectorIiSaIiEEET_N9__gnu_cxx17__normal_iteratorIS5_T0_EE
FN:1357,1359,_ZSt12__niter_baseIPiSt6vectorIiSaIiEEET_N9__gnu_cxx17__normal_iteratorIS4_T0_EE
FN:1519,1520,_ZNSt13move_iteratorIPSt6vectorIiSaIiEEEC2ES3_
FN:1545,1546,_ZNKSt13move_iteratorIPSt6vectorIiSaIiEEE4baseEv
FN:1561,1565,_ZNKSt13move_iteratorIPSt6vectorIiSaIiEEEdeEv
FN:1574,1578,_ZNSt13move_iteratorIPSt6vectorIiSaIiEEEppEv
FN:1748,1750,_ZSteqIPSt6vectorIiSaIiEEEbRKSt13move_iteratorIT_ES8_
FN:1763,1765,_ZStneIPSt6vectorIiSaIiEEEbRKSt13move_iteratorIT_ES8_
FN:1815,1816,_ZSt18make_move_iteratorIPSt6vectorIiSaIiEEESt13move_iteratorIT_ES5_
FN:1832,1833,_ZSt32__make_move_if_noexcept_iteratorISt6vectorIiSaIiEESt13move_iteratorIPS2_EET0_PT_
FNDA:8,_ZN9__gnu_cxx17__normal_iteratorIP4EdgeSt6vectorIS1_SaIS1_EEEC2ERKS2_
FNDA:4,_ZN9__gnu_cxx17__normal_iteratorIPK4EdgeSt6vectorIS1_SaIS1_EEEC2ERKS3_
FNDA:2,_ZN9__gnu_cxx17__normal_iteratorIPKSt5tupleIJiiiiEESt6vectorIS2_SaIS2_EEEC2ERKS4_
FNDA:14,_ZN9__gnu_cxx17__normal_iteratorIPKSt6vectorIiSaIiEES1_IS3_SaIS3_EEEC2ERKS5_
FNDA:26,_ZN9__gnu_cxx17__normal_iteratorIPKiSt6vectorIiSaIiEEEC2ERKS2_
FNDA:18,_ZN9__gnu_cxx17__normal_iteratorIPSt5tupleIJiiiiEESt6vectorIS2_SaIS2_EEEC2ERKS3_
FNDA:2,_ZN9__gnu_cxx17__normal_iteratorIPSt6vectorIiSaIiEES1_IS3_SaIS3_EEEC2ERKS4_
FNDA:20,_ZN9__gnu_cxx17__normal_iteratorIPiSt6vectorIiSaIiEEEC2ERKS1_
FNDA:2,_ZNK9__gnu_cxx17__normal_iteratorIP4EdgeSt6vectorIS1_SaIS1_EEEdeEv
FNDA:2,_ZNK9__gnu_cxx17__normal_iteratorIPK4EdgeSt6vectorIS1_SaIS1_EEEdeEv
FNDA:1,_ZNK9__gnu_cxx17__normal_iteratorIPKSt5tupleIJiiiiEESt6vectorIS2_SaIS2_EEEdeEv
FNDA:10,_ZNK9__gnu_cxx17__normal_iteratorIPKSt6vectorIiSaIiEES1_IS3_SaIS3_EEEdeEv
FNDA:5,_ZNK9__gnu_cxx17__normal_iteratorIPSt5tupleIJiiiiEESt6vectorIS2_SaIS2_EEEdeEv
FNDA:2,_ZNK9__gnu_cxx17__normal_iteratorIPiSt6vectorIiSaIiEEEdeEv
FNDA:2,_ZN9__gnu_cxx17__normal_iteratorIPK4EdgeSt6vectorIS1_SaIS1_EEEppEv
FNDA:1,_ZN9__gnu_cxx17__normal_iteratorIPKSt5tupleIJiiiiEESt6vectorIS2_SaIS2_EEEppEv
FNDA:10,_ZN9__gnu_cxx17__normal_iteratorIPKSt6vectorIiSaIiEES1_IS3_SaIS3_EEEppEv
FNDA:1,_ZN9__gnu_cxx17__normal_iteratorIPSt5tupleIJiiiiEESt6vectorIS2_SaIS2_EEEppEv
FNDA:2,_ZN9__gnu_cxx17__normal_iteratorIPiSt6vectorIiSaIiEEEppEv
FNDA:0,_ZNK9__gnu_cxx17__normal_iteratorIPiSt6vectorIiSaIiEEEplEl
FNDA:2,_ZNK9__gnu_cxx17__normal_iteratorIP4EdgeSt6vectorIS1_SaIS1_EEEmiEl
FNDA:4,_ZNK9__gnu_cxx17__normal_iteratorIPSt5tupleIJiiiiEESt6vectorIS2_SaIS2_EEEmiEl
FNDA:8,_ZNK9__gnu_cxx17__normal_iteratorIP4EdgeSt6vectorIS1_SaIS1_EEE4baseEv
FNDA:8,_ZNK9__gnu_cxx17__normal_iteratorIPK4EdgeSt6vectorIS1_SaIS1_EEE4baseEv
FNDA:4,_ZNK9__gnu_cxx17__normal_iteratorIPKSt5tupleIJiiiiEESt6vectorIS2_SaIS2_EEE4baseEv
FNDA:34,_ZNK9__gnu_cxx17__normal_iteratorIPKSt6vectorIiSaIiEES1_IS3_SaIS3_EEE4baseEv
FNDA:26,_ZNK9__gnu_cxx17__normal_iteratorIPKiSt6vectorIiSaIiEEE4baseEv
FNDA:20,_ZNK9__gnu_cxx17__normal_iteratorIPSt5tupleIJiiiiEESt6vectorIS2_SaIS2_EEE4baseEv
FNDA:2,_ZNK9__gnu_cxx17__normal_iteratorIPSt6vectorIiSaIiEES1_IS3_SaIS3_EEE4baseEv
FNDA:28,_ZNK9__gnu_cxx17__normal_iteratorIPiSt6vectorIiSaIiEEE4baseEv
FNDA:4,_ZN9__gnu_cxxneIPK4EdgeSt6vectorIS1_SaIS1_EEEEbRKNS_17__normal_iteratorIT_T0_EESC_
FNDA:2,_ZN9__gnu_cxxneIPKSt5tupleIJiiiiEESt6vectorIS2_SaIS2_EEEEbRKNS_17__normal_iteratorIT_T0_EESD_
FNDA:17,_ZN9__gnu_cxxneIPKSt6vectorIiSaIiEES1_IS3_SaIS3_EEEEbRKNS_17__normal_iteratorIT_T0_EESD_
FNDA:2,_ZN9__gnu_cxxneIPSt5tupleIJiiiiEESt6vectorIS2_SaIS2_EEEEbRKNS_17__normal_iteratorIT_T0_EESC_
FNDA:6,_ZN9__gnu_cxxneIPiSt6vectorIiSaIiEEEEbRKNS_17__normal_iteratorIT_T0_EESA_
FNDA:2,_ZN9__gnu_cxxmiIP4EdgeSt6vectorIS1_SaIS1_EEEENS_17__normal_iteratorIT_T0_E15difference_typeERKS9_SC_
FNDA:4,_ZN9__gnu_cxxmiIPSt5tupleIJiiiiEESt6vectorIS2_SaIS2_EEEENS_17__normal_iteratorIT_T0_E15difference_typeERKSA_SD_
FNDA:0,_ZN9__gnu_cxxmiIPSt6vectorIiSaIiEES1_IS3_SaIS3_EEEENS_17__normal_iteratorIT_T0_E15difference_typeERKSA_SD_
FNDA:2,_ZN9__gnu_cxxmiIPiSt6vectorIiSaIiEEEENS_17__normal_iteratorIT_T0_E15difference_typeERKS8_SB_
FNDA:26,_ZSt12__niter_baseIPKiSt6vectorIiSaIiEEET_N9__gnu_cxx17__normal_iteratorIS5_T0_EE
FNDA:0,_ZSt12__niter_baseIPiSt6vectorIiSaIiEEET_N9__gnu_cxx17__normal_iteratorIS4_T0_EE
FNDA:8,_ZNSt13move_iteratorIPSt6vectorIiSaIiEEEC2ES3_
FNDA:8,_ZNKSt13move_iteratorIPSt6vectorIiSaIiEEE4baseEv
FNDA:0,_ZNKSt13move_iteratorIPSt6vectorIiSaIiEEEdeEv
FNDA:0,_ZNSt13move_iteratorIPSt6vectorIiSaIiEEEppEv
FNDA:4,_ZSteqIPSt6vectorIiSaIiEEEbRKSt13move_iteratorIT_ES8_
FNDA:4,_ZStneIPSt6vectorIiSaIiEEEbRKSt13move_iteratorIT_ES8_
FNDA:0,_ZSt18make_move_iteratorIPSt6vectorIiSaIiEEESt13move_iteratorIT_ES5_
FNDA:8,_ZSt32__make_move_if_noexcept_iteratorISt6vectorIiSaIiEESt13move_iteratorIPS2_EET0_PT_
FNF:49
FNH:43
DA:1076,94
DA:1077,94
DA:1099,22
DA:1100,22
DA:1109,16
DA:1111,16
DA:1112,16
DA:1147,0
DA:1148,0
DA:1157,6
DA:1158,6
DA:1162,130
DA:1163,130
DA:1241,31
DA:1244,31
DA:1334,8
DA:1337,8
DA:1357,26
DA:1359,26
DA:1519,8
DA:1520,8
DA:1545,8
DA:1546,8
DA:1561,0
DA:1565,0
DA:1574,0
DA:1576,0
DA:1577,0
DA:1748,4
DA:1750,4
DA:1763,4
DA:1765,4
DA:1815,0
DA:1816,0
DA:1832,8
DA:1833,8
LF:36
LH:27
end_of_record
TN:
SF:/usr/include/c++/13/bits/stl_iterator_base_funcs.h
FNF:0
FNH:0
DA:106,38
DA:151,76
DA:152,76
LF:3
LH:3
end_of_record
TN:
SF:/usr/include/c++/13/bits/stl_iterator_base_types.h
FNF:0
FNH:0
DA:240,45
LF:1
LH:1
end_of_record
TN:
SF:/usr/include/c++/13/bits/stl_pair.h
FN:558,559,_ZNSt4pairIPSt18_Rb_tree_node_baseS1_EC2IS1_S1_Lb1EEERKS1_S5_
FN:558,559,_ZNSt4pairIiiEC2IiiLb1EEERKiS3_
FN:687,689,_ZNSt4pairINSt8__detail14_Node_iteratorIiLb1ELb0EEEbEC2IRS2_bLb1EEEOT_OT0_
FN:687,689,_ZNSt4pairINSt8__detail14_Node_iteratorIiLb1ELb0EEEbEC2IS2_bLb1EEEOT_OT0_
FN:687,689,_ZNSt4pairIPSt18_Rb_tree_node_baseS1_EC2IRPSt13_Rb_tree_nodeI4EdgeERS1_Lb1EEEOT_OT0_
FN:687,689,_ZNSt4pairISt17_Rb_tree_iteratorI4EdgeES2_EC2IS2_S2_Lb1EEEOT_OT0_
FN:687,689,_ZNSt4pairISt17_Rb_tree_iteratorI4EdgeEbEC2IS2_bLb1EEEOT_OT0_
FN:687,689,_ZNSt4pairISt23_Rb_tree_const_iteratorI4EdgeEbEC2IRSt17_Rb_tree_iteratorIS1_ERbLb1EEEOT_OT0_
FN:835,837,_ZStltIiiEbRKSt4pairIT_T0_ES5_
FN:922,928,_ZSt9make_pairIRKiS1_ESt4pairINSt25__strip_reference_wrapperINSt5decayIT_E4typeEE6__typeENS3_INS4_IT0_E4typeEE6__typeEEOS5_OSA_
FNDA:0,_ZNSt4pairIPSt18_Rb_tree_node_baseS1_EC2IS1_S1_Lb1EEERKS1_S5_
FNDA:0,_ZNSt4pairIiiEC2IiiLb1EEERKiS3_
FNDA:1,_ZNSt4pairINSt8__detail14_Node_iteratorIiLb1ELb0EEEbEC2IRS2_bLb1EEEOT_OT0_
FNDA:0,_ZNSt4pairINSt8__detail14_Node_iteratorIiLb1ELb0EEEbEC2IS2_bLb1EEEOT_OT0_
FNDA:2,_ZNSt4pairIPSt18_Rb_tree_node_baseS1_EC2IRPSt13_Rb_tree_nodeI4EdgeERS1_Lb1EEEOT_OT0_
FNDA:1,_ZNSt4pairISt17_Rb_tree_iteratorI4EdgeES2_EC2IS2_S2_Lb1EEEOT_OT0_
FNDA:2,_ZNSt4pairISt17_Rb_tree_iteratorI4EdgeEbEC2IS2_bLb1EEEOT_OT0_
FNDA:2,_ZNSt4pairISt23_Rb_tree_const_iteratorI4EdgeEbEC2IRSt17_Rb_tree_iteratorIS1_ERbLb1EEEOT_OT0_
FNDA:0,_ZStltIiiEbRKSt4pairIT_T0_ES5_
FNDA:0,_ZSt9make_pairIRKiS1_ESt4pairINSt25__strip_reference_wrapperINSt5decayIT_E4typeEE6__typeENS3_INS4_IT0_E4typeEE6__typeEEOS5_OSA_
FNF:10
FNH:5
DA:558,0
DA:559,0
DA:687,8
DA:688,8
DA:689,8
DA:835,0
DA:836,0
DA:837,0
DA:922,0
DA:927,0
LF:10
LH:3
end_of_record
TN:
SF:/usr/include/c++/13/bits/stl_queue.h
FN:166,167,_ZNSt5queueISt8functionIFvvEESt5dequeIS2_SaIS2_EEEC2IS5_vEEv
FN:166,167,_ZNSt5queueIiSt5dequeIiSaIiEEEC2IS2_vEEv
FN:218,219,_ZNKSt5queueISt8functionIFvvEESt5dequeIS2_SaIS2_EEE5emptyEv
FN:218,219,_ZNKSt5queueIiSt5dequeIiSaIiEEE5emptyEv
FN:233,237,_ZNSt5queueISt8functionIFvvEESt5dequeIS2_SaIS2_EEE5frontEv
FN:233,237,_ZNSt5queueIiSt5dequeIiSaIiEEE5frontEv
FN:285,286,_ZNSt5queueISt8functionIFvvEESt5dequeIS2_SaIS2_EEE4pushERKS2_
FN:285,286,_ZNSt5queueIiSt5dequeIiSaIiEEE4pushERKi
FN:318,322,_ZNSt5queueISt8functionIFvvEESt5dequeIS2_SaIS2_EEE3popEv
FN:318,322,_ZNSt5queueIiSt5dequeIiSaIiEEE3popEv
FNDA:3,_ZNSt5queueISt8functionIFvvEESt5dequeIS2_SaIS2_EEEC2IS5_vEEv
FNDA:2,_ZNSt5queueIiSt5dequeIiSaIiEEEC2IS2_vEEv
FNDA:24,_ZNKSt5queueISt8functionIFvvEESt5dequeIS2_SaIS2_EEE5emptyEv
FNDA:6,_ZNKSt5queueIiSt5dequeIiSaIiEEE5emptyEv
FNDA:9,_ZNSt5queueISt8functionIFvvEESt5dequeIS2_SaIS2_EEE5frontEv
FNDA:4,_ZNSt5queueIiSt5dequeIiSaIiEEE5frontEv
FNDA:9,_ZNSt5queueISt8functionIFvvEESt5dequeIS2_SaIS2_EEE4pushERKS2_
FNDA:4,_ZNSt5queueIiSt5dequeIiSaIiEEE4pushERKi
FNDA:9,_ZNSt5queueISt8functionIFvvEESt5dequeIS2_SaIS2_EEE3popEv
FNDA:4,_ZNSt5queueIiSt5dequeIiSaIiEEE3popEv
FNF:10
FNH:10
DA:166,5
DA:167,5
DA:218,30
DA:219,30
DA:233,13
DA:236,13
DA:285,13
DA:286,13
DA:318,13
DA:321,13
DA:322,13
LF:11
LH:11
end_of_record
TN:
SF:/usr/include/c++/13/bits/stl_set.h
FN:169,169,_ZNSt3setI4EdgeSt4lessIS0_ESaIS0_EEC2Ev
FN:283,283,_ZNSt3setI4EdgeSt4lessIS0_ESaIS0_EED2Ev
FN:346,347,_ZNKSt3setI4EdgeSt4lessIS0_ESaIS0_EE5beginEv
FN:520,525,_ZNSt3setI4EdgeSt4lessIS0_ESaIS0_EE6insertEOS0_
FN:656,657,_ZNSt3setI4EdgeSt4lessIS0_ESaIS0_EE5eraseB5cxx11ESt23_Rb_tree_const_iteratorIS0_E
FN:686,687,_ZNSt3setI4EdgeSt4lessIS0_ESaIS0_EE5eraseERKS0_
FNDA:1,_ZNSt3setI4EdgeSt4lessIS0_ESaIS0_EEC2Ev
FNDA:1,_ZNSt3setI4EdgeSt4lessIS0_ESaIS0_EED2Ev
FNDA:4,_ZNKSt3setI4EdgeSt4lessIS0_ESaIS0_EE5beginEv
FNDA:2,_ZNSt3setI4EdgeSt4lessIS0_ESaIS0_EE6insertEOS0_
FNDA:2,_ZNSt3setI4EdgeSt4lessIS0_ESaIS0_EE5eraseB5cxx11ESt23_Rb_tree_const_iteratorIS0_E
FNDA:1,_ZNSt3setI4EdgeSt4lessIS0_ESaIS0_EE5eraseERKS0_
FNF:6
FNH:6
DA:169,1
DA:283,1
DA:346,4
DA:347,4
DA:520,2
DA:523,2
DA:524,2
DA:656,2
DA:657,2
DA:686,1
DA:687,1
LF:11
LH:11
end_of_record
TN:
SF:/usr/include/c++/13/bits/stl_tree.h
FN:1001,1002,_ZNKSt8_Rb_treeI4EdgeS0_St9_IdentityIS0_ESt4lessIS0_ESaIS0_EE5beginEv
FN:1005,1006,_ZNSt8_Rb_treeI4EdgeS0_St9_IdentityIS0_ESt4lessIS0_ESaIS0_EE3endEv
FN:1033,1034,_ZNKSt8_Rb_treeI4EdgeS0_St9_IdentityIS0_ESt4lessIS0_ESaIS0_EE4sizeEv
FN:1193,1200,_ZNSt8_Rb_treeI4EdgeS0_St9_IdentityIS0_ESt4lessIS0_ESaIS0_EE5eraseB5cxx11ESt23_Rb_tree_const_iteratorIS0_E
FN:1253,1257,_ZNSt8_Rb_treeI4EdgeS0_St9_IdentityIS0_ESt4lessIS0_ESaIS0_EE5clearEv
FN:146,150,_ZNSt20_Rb_tree_key_compareISt4lessI4EdgeEEC2Ev
FN:173,177,_ZNSt15_Rb_tree_headerC2Ev
FN:1818,1837,_ZNSt8_Rb_treeI4EdgeS0_St9_IdentityIS0_ESt4lessIS0_ESaIS0_EE10_M_insert_IS0_NS6_11_Alloc_nodeEEESt17_Rb_tree_iteratorIS0_EPSt18_Rb_tree_node_baseSC_OT_RT0_
FN:1930,1941,_ZNSt8_Rb_treeI4EdgeS0_St9_IdentityIS0_ESt4lessIS0_ESaIS0_EE8_M_eraseEPSt13_Rb_tree_nodeIS0_E
FN:1947,1957,_ZNSt8_Rb_treeI4EdgeS0_St9_IdentityIS0_ESt4lessIS0_ESaIS0_EE14_M_lower_boundEPSt13_Rb_tree_nodeIS0_EPSt18_Rb_tree_node_baseRKS0_
FN:1979,1989,_ZNSt8_Rb_treeI4EdgeS0_St9_IdentityIS0_ESt4lessIS0_ESaIS0_EE14_M_upper_boundEPSt13_Rb_tree_nodeIS0_EPSt18_Rb_tree_node_baseRKS0_
FN:2013,2037,_ZNSt8_Rb_treeI4EdgeS0_St9_IdentityIS0_ESt4lessIS0_ESaIS0_EE11equal_rangeERKS0_
FN:206,212,_ZNSt15_Rb_tree_header8_M_resetEv
FN:2108,2132,_ZNSt8_Rb_treeI4EdgeS0_St9_IdentityIS0_ESt4lessIS0_ESaIS0_EE24_M_get_insert_unique_posERKS0_
FN:2162,2182,_ZNSt8_Rb_treeI4EdgeS0_St9_IdentityIS0_ESt4lessIS0_ESaIS0_EE16_M_insert_uniqueIS0_EESt4pairISt17_Rb_tree_iteratorIS0_EbEOT_
FN:234,235,_ZNSt13_Rb_tree_nodeI4EdgeE9_M_valptrEv
FN:238,239,_ZNKSt13_Rb_tree_nodeI4EdgeE9_M_valptrEv
FN:2489,2498,_ZNSt8_Rb_treeI4EdgeS0_St9_IdentityIS0_ESt4lessIS0_ESaIS0_EE12_M_erase_auxESt23_Rb_tree_const_iteratorIS0_E
FN:2503,2511,_ZNSt8_Rb_treeI4EdgeS0_St9_IdentityIS0_ESt4lessIS0_ESaIS0_EE12_M_erase_auxESt23_Rb_tree_const_iteratorIS0_ES8_
FN:2516,2523,_ZNSt8_Rb_treeI4EdgeS0_St9_IdentityIS0_ESt4lessIS0_ESaIS0_EE5eraseERKS0_
FN:273,274,_ZNSt17_Rb_tree_iteratorI4EdgeEC2EPSt18_Rb_tree_node_base
FN:300,304,_ZNSt17_Rb_tree_iteratorI4EdgeEmmEv
FN:315,316,_ZSteqRKSt17_Rb_tree_iteratorI4EdgeES3_
FN:347,348,_ZNSt23_Rb_tree_const_iteratorI4EdgeEC2EPKSt18_Rb_tree_node_base
FN:350,351,_ZNSt23_Rb_tree_const_iteratorI4EdgeEC2ERKSt17_Rb_tree_iteratorIS0_E
FN:354,355,_ZNKSt23_Rb_tree_const_iteratorI4EdgeE13_M_const_castEv
FN:362,363,_ZNKSt23_Rb_tree_const_iteratorI4EdgeEptEv
FN:366,370,_ZNSt23_Rb_tree_const_iteratorI4EdgeEppEv
FN:373,378,_ZNSt23_Rb_tree_const_iteratorI4EdgeEppEi
FN:396,397,_ZSteqRKSt23_Rb_tree_const_iteratorI4EdgeES3_
FN:401,402,_ZStneRKSt23_Rb_tree_const_iteratorI4EdgeES3_
FN:525,526,_ZNSt8_Rb_treeI4EdgeS0_St9_IdentityIS0_ESt4lessIS0_ESaIS0_EE11_Alloc_nodeC2ERS6_
FN:530,531,_ZNKSt8_Rb_treeI4EdgeS0_St9_IdentityIS0_ESt4lessIS0_ESaIS0_EE11_Alloc_nodeclIS0_EEPSt13_Rb_tree_nodeIS0_EOT_
FN:549,550,_ZNSt8_Rb_treeI4EdgeS0_St9_IdentityIS0_ESt4lessIS0_ESaIS0_EE21_M_get_Node_allocatorEv
FN:562,563,_ZNSt8_Rb_treeI4EdgeS0_St9_IdentityIS0_ESt4lessIS0_ESaIS0_EE11_M_get_nodeEv
FN:566,567,_ZNSt8_Rb_treeI4EdgeS0_St9_IdentityIS0_ESt4lessIS0_ESaIS0_EE11_M_put_nodeEPSt13_Rb_tree_nodeIS0_E
FN:592,607,_ZNSt8_Rb_treeI4EdgeS0_St9_IdentityIS0_ESt4lessIS0_ESaIS0_EE17_M_construct_nodeIJS0_EEEvPSt13_Rb_tree_nodeIS0_EDpOT_
FN:611,616,_ZNSt8_Rb_treeI4EdgeS0_St9_IdentityIS0_ESt4lessIS0_ESaIS0_EE14_M_create_nodeIJS0_EEEPSt13_Rb_tree_nodeIS0_EDpOT_
FN:620,628,_ZNSt8_Rb_treeI4EdgeS0_St9_IdentityIS0_ESt4lessIS0_ESaIS0_EE15_M_destroy_nodeEPSt13_Rb_tree_nodeIS0_E
FN:631,635,_ZNSt8_Rb_treeI4EdgeS0_St9_IdentityIS0_ESt4lessIS0_ESaIS0_EE12_M_drop_nodeEPSt13_Rb_tree_nodeIS0_E
FN:669,674,_ZNSt8_Rb_treeI4EdgeS0_St9_IdentityIS0_ESt4lessIS0_ESaIS0_EE13_Rb_tree_implIS4_Lb1EEC2Ev
FN:736,737,_ZNKSt8_Rb_treeI4EdgeS0_St9_IdentityIS0_ESt4lessIS0_ESaIS0_EE9_M_mbeginEv
FN:740,741,_ZNSt8_Rb_treeI4EdgeS0_St9_IdentityIS0_ESt4lessIS0_ESaIS0_EE8_M_beginEv
FN:751,752,_ZNSt8_Rb_treeI4EdgeS0_St9_IdentityIS0_ESt4lessIS0_ESaIS0_EE6_M_endEv
FN:759,778,_ZNSt8_Rb_treeI4EdgeS0_St9_IdentityIS0_ESt4lessIS0_ESaIS0_EE6_S_keyEPKSt13_Rb_tree_nodeIS0_E
FN:781,782,_ZNSt8_Rb_treeI4EdgeS0_St9_IdentityIS0_ESt4lessIS0_ESaIS0_EE7_S_leftEPSt18_Rb_tree_node_base
FN:789,790,_ZNSt8_Rb_treeI4EdgeS0_St9_IdentityIS0_ESt4lessIS0_ESaIS0_EE8_S_rightEPSt18_Rb_tree_node_base
FN:797,798,_ZNSt8_Rb_treeI4EdgeS0_St9_IdentityIS0_ESt4lessIS0_ESaIS0_EE6_S_keyEPKSt18_Rb_tree_node_base
FN:930,930,_ZNSt8_Rb_treeI4EdgeS0_St9_IdentityIS0_ESt4lessIS0_ESaIS0_EEC2Ev
FN:985,986,_ZNSt8_Rb_treeI4EdgeS0_St9_IdentityIS0_ESt4lessIS0_ESaIS0_EED2Ev
FN:997,998,_ZNSt8_Rb_treeI4EdgeS0_St9_IdentityIS0_ESt4lessIS0_ESaIS0_EE5beginEv
FNDA:4,_ZNKSt8_Rb_treeI4EdgeS0_St9_IdentityIS0_ESt4lessIS0_ESaIS0_EE5beginEv
FNDA:1,_ZNSt8_Rb_treeI4EdgeS0_St9_IdentityIS0_ESt4lessIS0_ESaIS0_EE3endEv
FNDA:2,_ZNKSt8_Rb_treeI4EdgeS0_St9_IdentityIS0_ESt4lessIS0_ESaIS0_EE4sizeEv
FNDA:2,_ZNSt8_Rb_treeI4EdgeS0_St9_IdentityIS0_ESt4lessIS0_ESaIS0_EE5eraseB5cxx11ESt23_Rb_tree_const_iteratorIS0_E
FNDA:1,_ZNSt8_Rb_treeI4EdgeS0_St9_IdentityIS0_ESt4lessIS0_ESaIS0_EE5clearEv
FNDA:1,_ZNSt20_Rb_tree_key_compareISt4lessI4EdgeEEC2Ev
FNDA:1,_ZNSt15_Rb_tree_headerC2Ev
FNDA:2,_ZNSt8_Rb_treeI4EdgeS0_St9_IdentityIS0_ESt4lessIS0_ESaIS0_EE10_M_insert_IS0_NS6_11_Alloc_nodeEEESt17_Rb_tree_iteratorIS0_EPSt18_Rb_tree_node_baseSC_OT_RT0_
FNDA:2,_ZNSt8_Rb_treeI4EdgeS0_St9_IdentityIS0_ESt4lessIS0_ESaIS0_EE8_M_eraseEPSt13_Rb_tree_nodeIS0_E
FNDA:0,_ZNSt8_Rb_treeI4EdgeS0_St9_IdentityIS0_ESt4lessIS0_ESaIS0_EE14_M_lower_boundEPSt13_Rb_tree_nodeIS0_EPSt18_Rb_tree_node_baseRKS0_
FNDA:0,_ZNSt8_Rb_treeI4EdgeS0_St9_IdentityIS0_ESt4lessIS0_ESaIS0_EE14_M_upper_boundEPSt13_Rb_tree_nodeIS0_EPSt18_Rb_tree_node_baseRKS0_
FNDA:1,_ZNSt8_Rb_treeI4EdgeS0_St9_IdentityIS0_ESt4lessIS0_ESaIS0_EE11equal_rangeERKS0_
FNDA:2,_ZNSt15_Rb_tree_header8_M_resetEv
FNDA:2,_ZNSt8_Rb_treeI4EdgeS0_St9_IdentityIS0_ESt4lessIS0_ESaIS0_EE24_M_get_insert_unique_posERKS0_
FNDA:2,_ZNSt8_Rb_treeI4EdgeS0_St9_IdentityIS0_ESt4lessIS0_ESaIS0_EE16_M_insert_uniqueIS0_EESt4pairISt17_Rb_tree_iteratorIS0_EbEOT_
FNDA:4,_ZNSt13_Rb_tree_nodeI4EdgeE9_M_valptrEv
FNDA:2,_ZNKSt13_Rb_tree_nodeI4EdgeE9_M_valptrEv
FNDA:2,_ZNSt8_Rb_treeI4EdgeS0_St9_IdentityIS0_ESt4lessIS0_ESaIS0_EE12_M_erase_auxESt23_Rb_tree_const_iteratorIS0_E
FNDA:1,_ZNSt8_Rb_treeI4EdgeS0_St9_IdentityIS0_ESt4lessIS0_ESaIS0_EE12_M_erase_auxESt23_Rb_tree_const_iteratorIS0_ES8_
FNDA:1,_ZNSt8_Rb_treeI4EdgeS0_St9_IdentityIS0_ESt4lessIS0_ESaIS0_EE5eraseERKS0_
FNDA:12,_ZNSt17_Rb_tree_iteratorI4EdgeEC2EPSt18_Rb_tree_node_base
FNDA:0,_ZNSt17_Rb_tree_iteratorI4EdgeEmmEv
FNDA:2,_ZSteqRKSt17_Rb_tree_iteratorI4EdgeES3_
FNDA:4,_ZNSt23_Rb_tree_const_iteratorI4EdgeEC2EPKSt18_Rb_tree_node_base
FNDA:8,_ZNSt23_Rb_tree_const_iteratorI4EdgeEC2ERKSt17_Rb_tree_iteratorIS0_E
FNDA:2,_ZNKSt23_Rb_tree_const_iteratorI4EdgeE13_M_const_castEv
FNDA:2,_ZNKSt23_Rb_tree_const_iteratorI4EdgeEptEv
FNDA:2,_ZNSt23_Rb_tree_const_iteratorI4EdgeEppEv
FNDA:0,_ZNSt23_Rb_tree_const_iteratorI4EdgeEppEi
FNDA:2,_ZSteqRKSt23_Rb_tree_const_iteratorI4EdgeES3_
FNDA:0,_ZStneRKSt23_Rb_tree_const_iteratorI4EdgeES3_
FNDA:2,_ZNSt8_Rb_treeI4EdgeS0_St9_IdentityIS0_ESt4lessIS0_ESaIS0_EE11_Alloc_nodeC2ERS6_
FNDA:2,_ZNKSt8_Rb_treeI4EdgeS0_St9_IdentityIS0_ESt4lessIS0_ESaIS0_EE11_Alloc_nodeclIS0_EEPSt13_Rb_tree_nodeIS0_EOT_
FNDA:8,_ZNSt8_Rb_treeI4EdgeS0_St9_IdentityIS0_ESt4lessIS0_ESaIS0_EE21_M_get_Node_allocatorEv
FNDA:2,_ZNSt8_Rb_treeI4EdgeS0_St9_IdentityIS0_ESt4lessIS0_ESaIS0_EE11_M_get_nodeEv
FNDA:2,_ZNSt8_Rb_treeI4EdgeS0_St9_IdentityIS0_ESt4lessIS0_ESaIS0_EE11_M_put_nodeEPSt13_Rb_tree_nodeIS0_E
FNDA:2,_ZNSt8_Rb_treeI4EdgeS0_St9_IdentityIS0_ESt4lessIS0_ESaIS0_EE17_M_construct_nodeIJS0_EEEvPSt13_Rb_tree_nodeIS0_EDpOT_
FNDA:2,_ZNSt8_Rb_treeI4EdgeS0_St9_IdentityIS0_ESt4lessIS0_ESaIS0_EE14_M_create_nodeIJS0_EEEPSt13_Rb_tree_nodeIS0_EDpOT_
FNDA:2,_ZNSt8_Rb_treeI4EdgeS0_St9_IdentityIS0_ESt4lessIS0_ESaIS0_EE15_M_destroy_nodeEPSt13_Rb_tree_nodeIS0_E
FNDA:2,_ZNSt8_Rb_treeI4EdgeS0_St9_IdentityIS0_ESt4lessIS0_ESaIS0_EE12_M_drop_nodeEPSt13_Rb_tree_nodeIS0_E
FNDA:1,_ZNSt8_Rb_treeI4EdgeS0_St9_IdentityIS0_ESt4lessIS0_ESaIS0_EE13_Rb_tree_implIS4_Lb1EEC2Ev
FNDA:5,_ZNKSt8_Rb_treeI4EdgeS0_St9_IdentityIS0_ESt4lessIS0_ESaIS0_EE9_M_mbeginEv
FNDA:5,_ZNSt8_Rb_treeI4EdgeS0_St9_IdentityIS0_ESt4lessIS0_ESaIS0_EE8_M_beginEv
FNDA:5,_ZNSt8_Rb_treeI4EdgeS0_St9_IdentityIS0_ESt4lessIS0_ESaIS0_EE6_M_endEv
FNDA:0,_ZNSt8_Rb_treeI4EdgeS0_St9_IdentityIS0_ESt4lessIS0_ESaIS0_EE6_S_keyEPKSt13_Rb_tree_nodeIS0_E
FNDA:0,_ZNSt8_Rb_treeI4EdgeS0_St9_IdentityIS0_ESt4lessIS0_ESaIS0_EE7_S_leftEPSt18_Rb_tree_node_base
FNDA:0,_ZNSt8_Rb_treeI4EdgeS0_St9_IdentityIS0_ESt4lessIS0_ESaIS0_EE8_S_rightEPSt18_Rb_tree_node_base
FNDA:0,_ZNSt8_Rb_treeI4EdgeS0_St9_IdentityIS0_ESt4lessIS0_ESaIS0_EE6_S_keyEPKSt18_Rb_tree_node_base
FNDA:1,_ZNSt8_Rb_treeI4EdgeS0_St9_IdentityIS0_ESt4lessIS0_ESaIS0_EEC2Ev
FNDA:1,_ZNSt8_Rb_treeI4EdgeS0_St9_IdentityIS0_ESt4lessIS0_ESaIS0_EED2Ev
FNDA:3,_ZNSt8_Rb_treeI4EdgeS0_St9_IdentityIS0_ESt4lessIS0_ESaIS0_EE5beginEv
FNF:51
FNH:42
DA:146,1
DA:150,1
DA:173,1
DA:174,1
DA:175,1
DA:176,1
DA:177,1
DA:206,2
DA:208,2
DA:209,2
DA:210,2
DA:211,2
DA:212,2
DA:234,4
DA:235,4
DA:238,2
DA:239,2
DA:273,12
DA:274,12
DA:300,0
DA:302,0
DA:303,0
DA:315,2
DA:316,2
DA:347,4
DA:348,4
DA:350,8
DA:351,8
DA:354,2
DA:355,2
DA:362,2
DA:363,2
DA:366,2
DA:368,2
DA:369,2
DA:373,0
DA:375,0
DA:376,0
DA:377,0
DA:396,2
DA:397,2
DA:401,0
DA:402,0
DA:525,2
DA:526,2
DA:530,2
DA:531,2
DA:549,8
DA:550,8
DA:562,2
DA:563,4
DA:566,2
DA:567,2
DA:592,2
DA:596,2
DA:597,2
DA:607,2
DA:611,2
DA:613,2
DA:614,2
DA:615,2
DA:620,2
DA:625,2
DA:626,2
DA:628,2
DA:631,2
DA:633,2
DA:634,2
DA:635,2
DA:669,1
DA:673,1
DA:674,1
DA:736,5
DA:737,5
DA:740,5
DA:741,5
DA:751,5
DA:752,5
DA:759,0
DA:777,0
DA:781,0
DA:782,0
DA:789,0
DA:790,0
DA:797,0
DA:798,0
DA:930,1
DA:985,1
DA:986,1
DA:997,3
DA:998,3
DA:1001,4
DA:1002,4
DA:1005,1
DA:1006,1
DA:1033,2
DA:1034,2
DA:1193,2
DA:1195,2
DA:1196,2
DA:1197,2
DA:1198,2
DA:1199,2
DA:1253,1
DA:1255,1
DA:1256,1
DA:1257,1
DA:1818,2
DA:1827,2
DA:1828,4
DA:1831,2
DA:1833,2
DA:1834,2
DA:1835,2
DA:1836,2
DA:1930,2
DA:1934,2
DA:1936,0
DA:1937,0
DA:1938,0
DA:1939,0
DA:1941,2
DA:1947,0
DA:1951,0
DA:1952,0
DA:1953,0
DA:1955,0
DA:1956,0
DA:1979,0
DA:1983,0
DA:1984,0
DA:1985,0
DA:1987,0
DA:1988,0
DA:2013,1
DA:2016,1
DA:2017,1
DA:2018,1
DA:2020,0
DA:2021,0
DA:2022,0
DA:2023,0
DA:2026,0
DA:2027,0
DA:2028,0
DA:2029,0
DA:2030,0
DA:2031,0
DA:2032,0
DA:2035,1
DA:2036,2
DA:2108,2
DA:2112,2
DA:2113,2
DA:2114,2
DA:2115,2
DA:2117,0
DA:2118,0
DA:2119,0
DA:2121,2
DA:2122,2
DA:2124,2
DA:2125,2
DA:2127,0
DA:2129,0
DA:2130,0
DA:2131,0
DA:2162,2
DA:2171,2
DA:2173,2
DA:2175,2
DA:2176,2
DA:2178,2
DA:2181,0
DA:2489,2
DA:2494,2
DA:2495,2
DA:2496,2
DA:2497,2
DA:2498,2
DA:2503,1
DA:2506,1
DA:2507,1
DA:2509,0
DA:2510,0
DA:2511,1
DA:2516,1
DA:2519,1
DA:2520,1
DA:2521,1
DA:2522,2
LF:191
LH:137
end_of_record
TN:
SF:/usr/include/c++/13/bits/stl_uninitialized.h
FN:1069,1079,_ZSt19__relocate_object_aI4EdgeS0_SaIS0_EEvPT_PT0_RT1_
FN:1069,1079,_ZSt19__relocate_object_aISt5tupleIJiiiiEES1_SaIS1_EEvPT_PT0_RT1_
FN:1091,1108,_ZSt14__relocate_a_1IP4EdgeS1_SaIS0_EET0_T_S4_S3_RT1_
FN:1091,1108,_ZSt14__relocate_a_1IPSt5tupleIJiiiiEES2_SaIS1_EET0_T_S5_S4_RT1_
FN:1114,1134,_ZSt14__relocate_a_1IiiENSt9enable_ifIXsrSt24__is_bitwise_relocatableIT_vE5valueEPS2_E4typeES4_S4_S4_RSaIT0_E
FN:113,128,_ZSt16__do_uninit_copyIN9__gnu_cxx17__normal_iteratorIPKSt5tupleIJiiiiEESt6vectorIS3_SaIS3_EEEEPS3_ET0_T_SC_SB_
FN:113,128,_ZSt16__do_uninit_copyIN9__gnu_cxx17__normal_iteratorIPKSt6vectorIiSaIiEES2_IS4_SaIS4_EEEEPS4_ET0_T_SC_SB_
FN:113,128,_ZSt16__do_uninit_copyISt13move_iteratorIPSt6vectorIiSaIiEEES4_ET0_T_S7_S6_
FN:1141,1150,_ZSt12__relocate_aIP4EdgeS1_SaIS0_EET0_T_S4_S3_RT1_
FN:1141,1150,_ZSt12__relocate_aIPSt5tupleIJiiiiEES2_SaIS1_EET0_T_S5_S4_RT1_
FN:1141,1150,_ZSt12__relocate_aIPiS0_SaIiEET0_T_S3_S2_RT1_
FN:135,137,_ZNSt20__uninitialized_copyILb0EE13__uninit_copyIN9__gnu_cxx17__normal_iteratorIPKSt5tupleIJiiiiEESt6vectorIS5_SaIS5_EEEEPS5_EET0_T_SE_SD_
FN:135,137,_ZNSt20__uninitialized_copyILb0EE13__uninit_copyIN9__gnu_cxx17__normal_iteratorIPKSt6vectorIiSaIiEES4_IS6_SaIS6_EEEEPS6_EET0_T_SE_SD_
FN:135,137,_ZNSt20__uninitialized_copyILb0EE13__uninit_copyISt13move_iteratorIPSt6vectorIiSaIiEEES6_EET0_T_S9_S8_
FN:145,147,_ZNSt20__uninitialized_copyILb1EE13__uninit_copyIN9__gnu_cxx17__normal_iteratorIPKiSt6vectorIiSaIiEEEEPiEET0_T_SC_SB_
FN:145,147,_ZNSt20__uninitialized_copyILb1EE13__uninit_copyIPiS2_EET0_T_S4_S3_
FN:163,186,_ZSt18uninitialized_copyIN9__gnu_cxx17__normal_iteratorIPKSt5tupleIJiiiiEESt6vectorIS3_SaIS3_EEEEPS3_ET0_T_SC_SB_
FN:163,186,_ZSt18uninitialized_copyIN9__gnu_cxx17__normal_iteratorIPKSt6vectorIiSaIiEES2_IS4_SaIS4_EEEEPS4_ET0_T_SC_SB_
FN:163,186,_ZSt18uninitialized_copyIN9__gnu_cxx17__normal_iteratorIPKiSt6vectorIiSaIiEEEEPiET0_T_SA_S9_
FN:163,186,_ZSt18uninitialized_copyIPiS0_ET0_T_S2_S1_
FN:163,186,_ZSt18uninitialized_copyISt13move_iteratorIPSt6vectorIiSaIiEEES4_ET0_T_S7_S6_
FN:261,275,_ZSt18__do_uninit_fill_nIPSt6vectorIiSaIiEEmS2_ET_S4_T0_RKT1_
FN:282,284,_ZNSt22__uninitialized_fill_nILb0EE15__uninit_fill_nIPSt6vectorIiSaIiEEmS4_EET_S6_T0_RKT1_
FN:292,294,_ZNSt22__uninitialized_fill_nILb1EE15__uninit_fill_nIPimiEET_S3_T0_RKT1_
FN:312,328,_ZSt20uninitialized_fill_nIPSt6vectorIiSaIiEEmS2_ET_S4_T0_RKT1_
FN:312,328,_ZSt20uninitialized_fill_nIPimiET_S1_T0_RKT1_
FN:366,374,_ZSt22__uninitialized_copy_aIN9__gnu_cxx17__normal_iteratorIPKSt5tupleIJiiiiEESt6vectorIS3_SaIS3_EEEEPS3_S3_ET0_T_SC_SB_RSaIT1_E
FN:366,374,_ZSt22__uninitialized_copy_aIN9__gnu_cxx17__normal_iteratorIPKSt6vectorIiSaIiEES2_IS4_SaIS4_EEEEPS4_S4_ET0_T_SC_SB_RSaIT1_E
FN:366,374,_ZSt22__uninitialized_copy_aIN9__gnu_cxx17__normal_iteratorIPKiSt6vectorIiSaIiEEEEPiiET0_T_SA_S9_RSaIT1_E
FN:366,374,_ZSt22__uninitialized_copy_aIPiS0_iET0_T_S2_S1_RSaIT1_E
FN:366,374,_ZSt22__uninitialized_copy_aISt13move_iteratorIPSt6vectorIiSaIiEEES4_S3_ET0_T_S7_S6_RSaIT1_E
FN:381,387,_ZSt22__uninitialized_move_aIPSt6vectorIiSaIiEES3_SaIS2_EET0_T_S6_S5_RT1_
FN:393,401,_ZSt34__uninitialized_move_if_noexcept_aIPSt6vectorIiSaIiEES3_SaIS2_EET0_T_S6_S5_RT1_
FN:465,473,_ZSt24__uninitialized_fill_n_aIPSt6vectorIiSaIiEEmS2_S2_ET_S4_T0_RKT1_RSaIT2_E
FN:465,473,_ZSt24__uninitialized_fill_n_aIPimiiET_S1_T0_RKT1_RSaIT2_E
FN:637,651,_ZNSt27__uninitialized_default_n_1ILb0EE18__uninit_default_nIP4EdgemEET_S4_T0_
FN:637,651,_ZNSt27__uninitialized_default_n_1ILb0EE18__uninit_default_nIPSt6vectorI4EdgeSaIS3_EEmEET_S7_T0_
FN:637,651,_ZNSt27__uninitialized_default_n_1ILb0EE18__uninit_default_nIPSt6vectorIiSaIiEEmEET_S6_T0_
FN:696,713,_ZSt25__uninitialized_default_nIP4EdgemET_S2_T0_
FN:696,713,_ZSt25__uninitialized_default_nIPSt6vectorI4EdgeSaIS1_EEmET_S5_T0_
FN:696,713,_ZSt25__uninitialized_default_nIPSt6vectorIiSaIiEEmET_S4_T0_
FN:777,779,_ZSt27__uninitialized_default_n_aIP4EdgemS0_ET_S2_T0_RSaIT1_E
FN:777,779,_ZSt27__uninitialized_default_n_aIPSt6vectorI4EdgeSaIS1_EEmS3_ET_S5_T0_RSaIT1_E
FN:777,779,_ZSt27__uninitialized_default_n_aIPSt6vectorIiSaIiEEmS2_ET_S4_T0_RSaIT1_E
FNDA:0,_ZSt19__relocate_object_aI4EdgeS0_SaIS0_EEvPT_PT0_RT1_
FNDA:0,_ZSt19__relocate_object_aISt5tupleIJiiiiEES1_SaIS1_EEvPT_PT0_RT1_
FNDA:4,_ZSt14__relocate_a_1IP4EdgeS1_SaIS0_EET0_T_S4_S3_RT1_
FNDA:8,_ZSt14__relocate_a_1IPSt5tupleIJiiiiEES2_SaIS1_EET0_T_S5_S4_RT1_
FNDA:4,_ZSt14__relocate_a_1IiiENSt9enable_ifIXsrSt24__is_bitwise_relocatableIT_vE5valueEPS2_E4typeES4_S4_S4_RSaIT0_E
FNDA:0,_ZSt16__do_uninit_copyIN9__gnu_cxx17__normal_iteratorIPKSt5tupleIJiiiiEESt6vectorIS3_SaIS3_EEEEPS3_ET0_T_SC_SB_
FNDA:7,_ZSt16__do_uninit_copyIN9__gnu_cxx17__normal_iteratorIPKSt6vectorIiSaIiEES2_IS4_SaIS4_EEEEPS4_ET0_T_SC_SB_
FNDA:4,_ZSt16__do_uninit_copyISt13move_iteratorIPSt6vectorIiSaIiEEES4_ET0_T_S7_S6_
FNDA:4,_ZSt12__relocate_aIP4EdgeS1_SaIS0_EET0_T_S4_S3_RT1_
FNDA:8,_ZSt12__relocate_aIPSt5tupleIJiiiiEES2_SaIS1_EET0_T_S5_S4_RT1_
FNDA:4,_ZSt12__relocate_aIPiS0_SaIiEET0_T_S3_S2_RT1_
FNDA:0,_ZNSt20__uninitialized_copyILb0EE13__uninit_copyIN9__gnu_cxx17__normal_iteratorIPKSt5tupleIJiiiiEESt6vectorIS5_SaIS5_EEEEPS5_EET0_T_SE_SD_
FNDA:7,_ZNSt20__uninitialized_copyILb0EE13__uninit_copyIN9__gnu_cxx17__normal_iteratorIPKSt6vectorIiSaIiEES4_IS6_SaIS6_EEEEPS6_EET0_T_SE_SD_
FNDA:4,_ZNSt20__uninitialized_copyILb0EE13__uninit_copyISt13move_iteratorIPSt6vectorIiSaIiEEES6_EET0_T_S9_S8_
FNDA:13,_ZNSt20__uninitialized_copyILb1EE13__uninit_copyIN9__gnu_cxx17__normal_iteratorIPKiSt6vectorIiSaIiEEEEPiEET0_T_SC_SB_
FNDA:0,_ZNSt20__uninitialized_copyILb1EE13__uninit_copyIPiS2_EET0_T_S4_S3_
FNDA:0,_ZSt18uninitialized_copyIN9__gnu_cxx17__normal_iteratorIPKSt5tupleIJiiiiEESt6vectorIS3_SaIS3_EEEEPS3_ET0_T_SC_SB_
FNDA:7,_ZSt18uninitialized_copyIN9__gnu_cxx17__normal_iteratorIPKSt6vectorIiSaIiEES2_IS4_SaIS4_EEEEPS4_ET0_T_SC_SB_
FNDA:13,_ZSt18uninitialized_copyIN9__gnu_cxx17__normal_iteratorIPKiSt6vectorIiSaIiEEEEPiET0_T_SA_S9_
FNDA:0,_ZSt18uninitialized_copyIPiS0_ET0_T_S2_S1_
FNDA:4,_ZSt18uninitialized_copyISt13move_iteratorIPSt6vectorIiSaIiEEES4_ET0_T_S7_S6_
FNDA:2,_ZSt18__do_uninit_fill_nIPSt6vectorIiSaIiEEmS2_ET_S4_T0_RKT1_
FNDA:2,_ZNSt22__uninitialized_fill_nILb0EE15__uninit_fill_nIPSt6vectorIiSaIiEEmS4_EET_S6_T0_RKT1_
FNDA:7,_ZNSt22__uninitialized_fill_nILb1EE15__uninit_fill_nIPimiEET_S3_T0_RKT1_
FNDA:2,_ZSt20uninitialized_fill_nIPSt6vectorIiSaIiEEmS2_ET_S4_T0_RKT1_
FNDA:7,_ZSt20uninitialized_fill_nIPimiET_S1_T0_RKT1_
FNDA:0,_ZSt22__uninitialized_copy_aIN9__gnu_cxx17__normal_iteratorIPKSt5tupleIJiiiiEESt6vectorIS3_SaIS3_EEEEPS3_S3_ET0_T_SC_SB_RSaIT1_E
FNDA:7,_ZSt22__uninitialized_copy_aIN9__gnu_cxx17__normal_iteratorIPKSt6vectorIiSaIiEES2_IS4_SaIS4_EEEEPS4_S4_ET0_T_SC_SB_RSaIT1_E
FNDA:13,_ZSt22__uninitialized_copy_aIN9__gnu_cxx17__normal_iteratorIPKiSt6vectorIiSaIiEEEEPiiET0_T_SA_S9_RSaIT1_E
FNDA:0,_ZSt22__uninitialized_copy_aIPiS0_iET0_T_S2_S1_RSaIT1_E
FNDA:4,_ZSt22__uninitialized_copy_aISt13move_iteratorIPSt6vectorIiSaIiEEES4_S3_ET0_T_S7_S6_RSaIT1_E
FNDA:0,_ZSt22__uninitialized_move_aIPSt6vectorIiSaIiEES3_SaIS2_EET0_T_S6_S5_RT1_
FNDA:4,_ZSt34__uninitialized_move_if_noexcept_aIPSt6vectorIiSaIiEES3_SaIS2_EET0_T_S6_S5_RT1_
FNDA:2,_ZSt24__uninitialized_fill_n_aIPSt6vectorIiSaIiEEmS2_S2_ET_S4_T0_RKT1_RSaIT2_E
FNDA:7,_ZSt24__uninitialized_fill_n_aIPimiiET_S1_T0_RKT1_RSaIT2_E
FNDA:1,_ZNSt27__uninitialized_default_n_1ILb0EE18__uninit_default_nIP4EdgemEET_S4_T0_
FNDA:1,_ZNSt27__uninitialized_default_n_1ILb0EE18__uninit_default_nIPSt6vectorI4EdgeSaIS3_EEmEET_S7_T0_
FNDA:1,_ZNSt27__uninitialized_default_n_1ILb0EE18__uninit_default_nIPSt6vectorIiSaIiEEmEET_S6_T0_
FNDA:1,_ZSt25__uninitialized_default_nIP4EdgemET_S2_T0_
FNDA:1,_ZSt25__uninitialized_default_nIPSt6vectorI4EdgeSaIS1_EEmET_S5_T0_
FNDA:1,_ZSt25__uninitialized_default_nIPSt6vectorIiSaIiEEmET_S4_T0_
FNDA:1,_ZSt27__uninitialized_default_n_aIP4EdgemS0_ET_S2_T0_RSaIT1_E
FNDA:1,_ZSt27__uninitialized_default_n_aIPSt6vectorI4EdgeSaIS1_EEmS3_ET_S5_T0_RSaIT1_E
FNDA:1,_ZSt27__uninitialized_default_n_aIPSt6vectorIiSaIiEEmS2_ET_S4_T0_RSaIT1_E
FNF:44
FNH:34
DA:113,11
DA:116,11
DA:119,21
DA:120,10
DA:121,11
DA:123,0
DA:125,0
DA:126,0
DA:135,11
DA:137,11
DA:145,13
DA:147,13
DA:163,24
DA:174,24
DA:181,24
DA:185,24
DA:261,2
DA:263,2
DA:266,5
DA:267,3
DA:268,2
DA:270,0
DA:272,0
DA:273,0
DA:282,2
DA:284,2
DA:292,7
DA:294,7
DA:312,9
DA:319,9
DA:327,9
DA:366,24
DA:373,24
DA:381,0
DA:384,0
DA:386,0
DA:393,4
DA:399,4
DA:400,4
DA:465,9
DA:472,9
DA:637,3
DA:639,3
DA:642,9
DA:643,6
DA:644,3
DA:696,3
DA:707,3
DA:712,3
DA:777,3
DA:779,3
DA:1069,0
DA:1077,0
DA:1078,0
DA:1079,0
DA:1091,12
DA:1103,12
DA:1104,12
DA:1105,0
DA:1107,12
DA:1114,4
DA:1118,4
DA:1119,4
DA:1131,0
DA:1133,4
DA:1141,16
DA:1147,16
DA:1149,16
LF:68
LH:53
end_of_record
TN:
SF:/usr/include/c++/13/bits/stl_vector.h
FN:1034,1040,_ZNSt6vectorIS_IiSaIiEESaIS1_EE6resizeEmRKS1_
FN:105,108,_ZNSt12_Vector_baseIiSaIiEE17_Vector_impl_dataC2EOS2_
FN:1078,1080,_ZNKSt6vectorIiSaIiEE8capacityEv
FN:1126,1130,_ZNSt6vectorI4EdgeSaIS0_EEixEm
FN:1126,1130,_ZNSt6vectorIS_I4EdgeSaIS0_EESaIS2_EEixEm
FN:1126,1130,_ZNSt6vectorIS_IiSaIiEESaIS1_EEixEm
FN:1126,1130,_ZNSt6vectorIiSaIiEEixEm
FN:113,118,_ZNSt12_Vector_baseISt5tupleIJiiiiEESaIS1_EE17_Vector_impl_data12_M_copy_dataERKS4_
FN:113,118,_ZNSt12_Vector_baseISt6vectorIiSaIiEESaIS2_EE17_Vector_impl_data12_M_copy_dataERKS5_
FN:113,118,_ZNSt12_Vector_baseIiSaIiEE17_Vector_impl_data12_M_copy_dataERKS2_
FN:1145,1149,_ZNKSt6vectorIS_I4EdgeSaIS0_EESaIS2_EEixEm
FN:1145,1149,_ZNKSt6vectorISt5tupleIJiiiiEESaIS1_EEixEm
FN:122,130,_ZNSt12_Vector_baseISt5tupleIJiiiiEESaIS1_EE17_Vector_impl_data12_M_swap_dataERS4_
FN:122,130,_ZNSt12_Vector_baseISt6vectorIiSaIiEESaIS2_EE17_Vector_impl_data12_M_swap_dataERS5_
FN:122,130,_ZNSt12_Vector_baseIiSaIiEE17_Vector_impl_data12_M_swap_dataERS2_
FN:1233,1237,_ZNSt6vectorI4EdgeSaIS0_EE4backEv
FN:1233,1237,_ZNSt6vectorISt5tupleIJiiiiEESaIS1_EE4backEv
FN:1281,1293,_ZNSt6vectorIiSaIiEE9push_backERKi
FN:1298,1299,_ZNSt6vectorI4EdgeSaIS0_EE9push_backEOS0_
FN:137,143,_ZNSt12_Vector_baseI4EdgeSaIS0_EE12_Vector_implC2Ev
FN:137,143,_ZNSt12_Vector_baseISt5tupleIJiiiiEESaIS1_EE12_Vector_implC2Ev
FN:137,143,_ZNSt12_Vector_baseISt6vectorIiSaIiEESaIS2_EE12_Vector_implC2Ev
FN:137,143,_ZNSt12_Vector_baseIiSaIiEE12_Vector_implC2Ev
FN:146,148,_ZNSt12_Vector_baseI4EdgeSaIS0_EE12_Vector_implC2ERKS1_
FN:146,148,_ZNSt12_Vector_baseISt5tupleIJiiiiEESaIS1_EE12_Vector_implC2ERKS2_
FN:146,148,_ZNSt12_Vector_baseISt6vectorI4EdgeSaIS1_EESaIS3_EE12_Vector_implC2ERKS4_
FN:146,148,_ZNSt12_Vector_baseISt6vectorIiSaIiEESaIS2_EE12_Vector_implC2ERKS3_
FN:146,148,_ZNSt12_Vector_baseIiSaIiEE12_Vector_implC2ERKS0_
FN:154,156,_ZNSt12_Vector_baseIiSaIiEE12_Vector_implC2EOS2_
FN:1605,1606,_ZNSt6vectorIiSaIiEE5clearEv
FN:1616,1631,_ZNSt6vectorIiSaIiEE20_M_allocate_and_copyIN9__gnu_cxx17__normal_iteratorIPKiS1_EEEEPimT_S9_
FN:1704,1709,_ZNSt6vectorIiSaIiEE18_M_fill_initializeEmRKi
FN:1715,1720,_ZNSt6vectorI4EdgeSaIS0_EE21_M_default_initializeEm
FN:1715,1720,_ZNSt6vectorIS_I4EdgeSaIS0_EESaIS2_EE21_M_default_initializeEm
FN:1715,1720,_ZNSt6vectorIS_IiSaIiEESaIS1_EE21_M_default_initializeEm
FN:1833,1837,_ZNSt6vectorIS_IiSaIiEESaIS1_EE16_Temporary_valueC2IJRKS1_EEEPS3_DpOT_
FN:1840,1841,_ZNSt6vectorIS_IiSaIiEESaIS1_EE16_Temporary_valueD2Ev
FN:1844,1844,_ZNSt6vectorIS_IiSaIiEESaIS1_EE16_Temporary_value6_M_valEv
FN:1848,1848,_ZNSt6vectorIS_IiSaIiEESaIS1_EE16_Temporary_value6_M_ptrEv
FN:1852,1852,_ZNSt6vectorIS_IiSaIiEESaIS1_EE16_Temporary_value8_StorageC2Ev
FN:1853,1853,_ZNSt6vectorIS_IiSaIiEESaIS1_EE16_Temporary_value8_StorageD2Ev
FN:1896,1903,_ZNKSt6vectorI4EdgeSaIS0_EE12_M_check_lenEmPKc
FN:1896,1903,_ZNKSt6vectorIS_IiSaIiEESaIS1_EE12_M_check_lenEmPKc
FN:1896,1903,_ZNKSt6vectorISt5tupleIJiiiiEESaIS1_EE12_M_check_lenEmPKc
FN:1896,1903,_ZNKSt6vectorIiSaIiEE12_M_check_lenEmPKc
FN:1907,1913,_ZNSt6vectorI4EdgeSaIS0_EE17_S_check_init_lenEmRKS1_
FN:1907,1913,_ZNSt6vectorIS_I4EdgeSaIS0_EESaIS2_EE17_S_check_init_lenEmRKS3_
FN:1907,1913,_ZNSt6vectorIS_IiSaIiEESaIS1_EE17_S_check_init_lenEmRKS2_
FN:1907,1913,_ZNSt6vectorIiSaIiEE17_S_check_init_lenEmRKS0_
FN:1916,1925,_ZNSt6vectorI4EdgeSaIS0_EE11_S_max_sizeERKS1_
FN:1916,1925,_ZNSt6vectorIS_I4EdgeSaIS0_EESaIS2_EE11_S_max_sizeERKS3_
FN:1916,1925,_ZNSt6vectorIS_IiSaIiEESaIS1_EE11_S_max_sizeERKS2_
FN:1916,1925,_ZNSt6vectorISt5tupleIJiiiiEESaIS1_EE11_S_max_sizeERKS2_
FN:1916,1925,_ZNSt6vectorIiSaIiEE11_S_max_sizeERKS0_
FN:1933,1942,_ZNSt6vectorIS_IiSaIiEESaIS1_EE15_M_erase_at_endEPS1_
FN:1933,1942,_ZNSt6vectorIiSaIiEE15_M_erase_at_endEPi
FN:1959,1965,_ZNSt6vectorIS_IiSaIiEESaIS1_EE14_M_move_assignEOS3_St17integral_constantIbLb1EE
FN:1959,1965,_ZNSt6vectorISt5tupleIJiiiiEESaIS1_EE14_M_move_assignEOS3_St17integral_constantIbLb1EE
FN:1959,1965,_ZNSt6vectorIiSaIiEE14_M_move_assignEOS1_St17integral_constantIbLb1EE
FN:301,302,_ZNSt12_Vector_baseI4EdgeSaIS0_EE19_M_get_Tp_allocatorEv
FN:301,302,_ZNSt12_Vector_baseISt5tupleIJiiiiEESaIS1_EE19_M_get_Tp_allocatorEv
FN:301,302,_ZNSt12_Vector_baseISt6vectorI4EdgeSaIS1_EESaIS3_EE19_M_get_Tp_allocatorEv
FN:301,302,_ZNSt12_Vector_baseISt6vectorIiSaIiEESaIS2_EE19_M_get_Tp_allocatorEv
FN:301,302,_ZNSt12_Vector_baseIiSaIiEE19_M_get_Tp_allocatorEv
FN:306,307,_ZNKSt12_Vector_baseI4EdgeSaIS0_EE19_M_get_Tp_allocatorEv
FN:306,307,_ZNKSt12_Vector_baseISt5tupleIJiiiiEESaIS1_EE19_M_get_Tp_allocatorEv
FN:306,307,_ZNKSt12_Vector_baseISt6vectorIiSaIiEESaIS2_EE19_M_get_Tp_allocatorEv
FN:306,307,_ZNKSt12_Vector_baseIiSaIiEE19_M_get_Tp_allocatorEv
FN:311,312,_ZNKSt12_Vector_baseISt5tupleIJiiiiEESaIS1_EE13get_allocatorEv
FN:311,312,_ZNKSt12_Vector_baseISt6vectorIiSaIiEESaIS2_EE13get_allocatorEv
FN:311,312,_ZNKSt12_Vector_baseIiSaIiEE13get_allocatorEv
FN:315,315,_ZNSt12_Vector_baseI4EdgeSaIS0_EEC2Ev
FN:315,315,_ZNSt12_Vector_baseISt5tupleIJiiiiEESaIS1_EEC2Ev
FN:315,315,_ZNSt12_Vector_baseISt6vectorIiSaIiEESaIS2_EEC2Ev
FN:315,315,_ZNSt12_Vector_baseIiSaIiEEC2Ev
FN:321,322,_ZNSt12_Vector_baseISt5tupleIJiiiiEESaIS1_EEC2ERKS2_
FN:321,322,_ZNSt12_Vector_baseISt6vectorIiSaIiEESaIS2_EEC2ERKS3_
FN:321,322,_ZNSt12_Vector_baseIiSaIiEEC2ERKS0_
FN:333,335,_ZNSt12_Vector_baseI4EdgeSaIS0_EEC2EmRKS1_
FN:333,335,_ZNSt12_Vector_baseISt5tupleIJiiiiEESaIS1_EEC2EmRKS2_
FN:333,335,_ZNSt12_Vector_baseISt6vectorI4EdgeSaIS1_EESaIS3_EEC2EmRKS4_
FN:333,335,_ZNSt12_Vector_baseISt6vectorIiSaIiEESaIS2_EEC2EmRKS3_
FN:333,335,_ZNSt12_Vector_baseIiSaIiEEC2EmRKS0_
FN:338,338,_ZNSt12_Vector_baseIiSaIiEEC2EOS1_
FN:367,371,_ZNSt12_Vector_baseI4EdgeSaIS0_EED2Ev
FN:367,371,_ZNSt12_Vector_baseISt5tupleIJiiiiEESaIS1_EED2Ev
FN:367,371,_ZNSt12_Vector_baseISt6vectorI4EdgeSaIS1_EESaIS3_EED2Ev
FN:367,371,_ZNSt12_Vector_baseISt6vectorIiSaIiEESaIS2_EED2Ev
FN:367,371,_ZNSt12_Vector_baseIiSaIiEED2Ev
FN:378,382,_ZNSt12_Vector_baseI4EdgeSaIS0_EE11_M_allocateEm
FN:378,382,_ZNSt12_Vector_baseISt5tupleIJiiiiEESaIS1_EE11_M_allocateEm
FN:378,382,_ZNSt12_Vector_baseISt6vectorI4EdgeSaIS1_EESaIS3_EE11_M_allocateEm
FN:378,382,_ZNSt12_Vector_baseISt6vectorIiSaIiEESaIS2_EE11_M_allocateEm
FN:378,382,_ZNSt12_Vector_baseIiSaIiEE11_M_allocateEm
FN:386,391,_ZNSt12_Vector_baseI4EdgeSaIS0_EE13_M_deallocateEPS0_m
FN:386,391,_ZNSt12_Vector_baseISt5tupleIJiiiiEESaIS1_EE13_M_deallocateEPS1_m
FN:386,391,_ZNSt12_Vector_baseISt6vectorI4EdgeSaIS1_EESaIS3_EE13_M_deallocateEPS3_m
FN:386,391,_ZNSt12_Vector_baseISt6vectorIiSaIiEESaIS2_EE13_M_deallocateEPS2_m
FN:386,391,_ZNSt12_Vector_baseIiSaIiEE13_M_deallocateEPim
FN:396,401,_ZNSt12_Vector_baseI4EdgeSaIS0_EE17_M_create_storageEm
FN:396,401,_ZNSt12_Vector_baseISt5tupleIJiiiiEESaIS1_EE17_M_create_storageEm
FN:396,401,_ZNSt12_Vector_baseISt6vectorI4EdgeSaIS1_EESaIS3_EE17_M_create_storageEm
FN:396,401,_ZNSt12_Vector_baseISt6vectorIiSaIiEESaIS2_EE17_M_create_storageEm
FN:396,401,_ZNSt12_Vector_baseIiSaIiEE17_M_create_storageEm
FN:504,514,_ZNSt6vectorI4EdgeSaIS0_EE11_S_relocateEPS0_S3_S3_RS1_
FN:504,514,_ZNSt6vectorISt5tupleIJiiiiEESaIS1_EE11_S_relocateEPS1_S4_S4_RS2_
FN:504,514,_ZNSt6vectorIiSaIiEE11_S_relocateEPiS2_S2_RS0_
FN:531,531,_ZNSt6vectorI4EdgeSaIS0_EEC2Ev
FN:531,531,_ZNSt6vectorIS_IiSaIiEESaIS1_EEC2Ev
FN:531,531,_ZNSt6vectorISt5tupleIJiiiiEESaIS1_EEC2Ev
FN:531,531,_ZNSt6vectorIiSaIiEEC2Ev
FN:542,543,_ZNSt6vectorIS_IiSaIiEESaIS1_EEC2ERKS2_
FN:542,543,_ZNSt6vectorISt5tupleIJiiiiEESaIS1_EEC2ERKS2_
FN:542,543,_ZNSt6vectorIiSaIiEEC2ERKS0_
FN:556,558,_ZNSt6vectorI4EdgeSaIS0_EEC2EmRKS1_
FN:556,558,_ZNSt6vectorIS_I4EdgeSaIS0_EESaIS2_EEC2EmRKS3_
FN:556,558,_ZNSt6vectorIS_IiSaIiEESaIS1_EEC2EmRKS2_
FN:569,572,_ZNSt6vectorIiSaIiEEC2EmRKiRKS0_
FN:601,609,_ZNSt6vectorIS_IiSaIiEESaIS1_EEC2ERKS3_
FN:601,609,_ZNSt6vectorISt5tupleIJiiiiEESaIS1_EEC2ERKS3_
FN:601,609,_ZNSt6vectorIiSaIiEEC2ERKS1_
FN:620,620,_ZNSt6vectorIiSaIiEEC2EOS1_
FN:733,738,_ZNSt6vectorI4EdgeSaIS0_EED2Ev
FN:733,738,_ZNSt6vectorIS_I4EdgeSaIS0_EESaIS2_EED2Ev
FN:733,738,_ZNSt6vectorIS_IiSaIiEESaIS1_EED2Ev
FN:733,738,_ZNSt6vectorISt5tupleIJiiiiEESaIS1_EED2Ev
FN:733,738,_ZNSt6vectorIiSaIiEED2Ev
FN:766,773,_ZNSt6vectorIS_IiSaIiEESaIS1_EEaSEOS3_
FN:766,773,_ZNSt6vectorISt5tupleIJiiiiEESaIS1_EEaSEOS3_
FN:766,773,_ZNSt6vectorIiSaIiEEaSEOS1_
FN:873,874,_ZNSt6vectorI4EdgeSaIS0_EE5beginEv
FN:873,874,_ZNSt6vectorISt5tupleIJiiiiEESaIS1_EE5beginEv
FN:873,874,_ZNSt6vectorIiSaIiEE5beginEv
FN:883,884,_ZNKSt6vectorI4EdgeSaIS0_EE5beginEv
FN:883,884,_ZNKSt6vectorIS_IiSaIiEESaIS1_EE5beginEv
FN:883,884,_ZNKSt6vectorISt5tupleIJiiiiEESaIS1_EE5beginEv
FN:883,884,_ZNKSt6vectorIiSaIiEE5beginEv
FN:893,894,_ZNSt6vectorI4EdgeSaIS0_EE3endEv
FN:893,894,_ZNSt6vectorIS_IiSaIiEESaIS1_EE3endEv
FN:893,894,_ZNSt6vectorISt5tupleIJiiiiEESaIS1_EE3endEv
FN:893,894,_ZNSt6vectorIiSaIiEE3endEv
FN:903,904,_ZNKSt6vectorI4EdgeSaIS0_EE3endEv
FN:903,904,_ZNKSt6vectorIS_IiSaIiEESaIS1_EE3endEv
FN:903,904,_ZNKSt6vectorISt5tupleIJiiiiEESaIS1_EE3endEv
FN:903,904,_ZNKSt6vectorIiSaIiEE3endEv
FN:99,101,_ZNSt12_Vector_baseI4EdgeSaIS0_EE17_Vector_impl_dataC2Ev
FN:99,101,_ZNSt12_Vector_baseISt5tupleIJiiiiEESaIS1_EE17_Vector_impl_dataC2Ev
FN:99,101,_ZNSt12_Vector_baseISt6vectorI4EdgeSaIS1_EESaIS3_EE17_Vector_impl_dataC2Ev
FN:99,101,_ZNSt12_Vector_baseISt6vectorIiSaIiEESaIS2_EE17_Vector_impl_dataC2Ev
FN:99,101,_ZNSt12_Vector_baseIiSaIiEE17_Vector_impl_dataC2Ev
FN:992,993,_ZNKSt6vectorI4EdgeSaIS0_EE4sizeEv
FN:992,993,_ZNKSt6vectorIS_IiSaIiEESaIS1_EE4sizeEv
FN:992,993,_ZNKSt6vectorISt5tupleIJiiiiEESaIS1_EE4sizeEv
FN:992,993,_ZNKSt6vectorIiSaIiEE4sizeEv
FN:998,999,_ZNKSt6vectorI4EdgeSaIS0_EE8max_sizeEv
FN:998,999,_ZNKSt6vectorIS_IiSaIiEESaIS1_EE8max_sizeEv
FN:998,999,_ZNKSt6vectorISt5tupleIJiiiiEESaIS1_EE8max_sizeEv
FN:998,999,_ZNKSt6vectorIiSaIiEE8max_sizeEv
FNDA:3,_ZNSt6vectorIS_IiSaIiEESaIS1_EE6resizeEmRKS1_
FNDA:0,_ZNSt12_Vector_baseIiSaIiEE17_Vector_impl_dataC2EOS2_
FNDA:0,_ZNKSt6vectorIiSaIiEE8capacityEv
FNDA:9,_ZNSt6vectorI4EdgeSaIS0_EEixEm
FNDA:2,_ZNSt6vectorIS_I4EdgeSaIS0_EESaIS2_EEixEm
FNDA:79,_ZNSt6vectorIS_IiSaIiEESaIS1_EEixEm
FNDA:111,_ZNSt6vectorIiSaIiEEixEm
FNDA:24,_ZNSt12_Vector_baseISt5tupleIJiiiiEESaIS1_EE17_Vector_impl_data12_M_copy_dataERKS4_
FNDA:24,_ZNSt12_Vector_baseISt6vectorIiSaIiEESaIS2_EE17_Vector_impl_data12_M_copy_dataERKS5_
FNDA:0,_ZNSt12_Vector_baseIiSaIiEE17_Vector_impl_data12_M_copy_dataERKS2_
FNDA:2,_ZNKSt6vectorIS_I4EdgeSaIS0_EESaIS2_EEixEm
FNDA:4,_ZNKSt6vectorISt5tupleIJiiiiEESaIS1_EEixEm
FNDA:8,_ZNSt12_Vector_baseISt5tupleIJiiiiEESaIS1_EE17_Vector_impl_data12_M_swap_dataERS4_
FNDA:8,_ZNSt12_Vector_baseISt6vectorIiSaIiEESaIS2_EE17_Vector_impl_data12_M_swap_dataERS5_
FNDA:0,_ZNSt12_Vector_baseIiSaIiEE17_Vector_impl_data12_M_swap_dataERS2_
FNDA:2,_ZNSt6vectorI4EdgeSaIS0_EE4backEv
FNDA:4,_ZNSt6vectorISt5tupleIJiiiiEESaIS1_EE4backEv
FNDA:2,_ZNSt6vectorIiSaIiEE9push_backERKi
FNDA:2,_ZNSt6vectorI4EdgeSaIS0_EE9push_backEOS0_
FNDA:2,_ZNSt12_Vector_baseI4EdgeSaIS0_EE12_Vector_implC2Ev
FNDA:7,_ZNSt12_Vector_baseISt5tupleIJiiiiEESaIS1_EE12_Vector_implC2Ev
FNDA:3,_ZNSt12_Vector_baseISt6vectorIiSaIiEESaIS2_EE12_Vector_implC2Ev
FNDA:2,_ZNSt12_Vector_baseIiSaIiEE12_Vector_implC2Ev
FNDA:1,_ZNSt12_Vector_baseI4EdgeSaIS0_EE12_Vector_implC2ERKS1_
FNDA:4,_ZNSt12_Vector_baseISt5tupleIJiiiiEESaIS1_EE12_Vector_implC2ERKS2_
FNDA:1,_ZNSt12_Vector_baseISt6vectorI4EdgeSaIS1_EESaIS3_EE12_Vector_implC2ERKS4_
FNDA:12,_ZNSt12_Vector_baseISt6vectorIiSaIiEESaIS2_EE12_Vector_implC2ERKS3_
FNDA:20,_ZNSt12_Vector_baseIiSaIiEE12_Vector_implC2ERKS0_
FNDA:0,_ZNSt12_Vector_baseIiSaIiEE12_Vector_implC2EOS2_
FNDA:0,_ZNSt6vectorIiSaIiEE5clearEv
FNDA:0,_ZNSt6vectorIiSaIiEE20_M_allocate_and_copyIN9__gnu_cxx17__normal_iteratorIPKiS1_EEEEPimT_S9_
FNDA:7,_ZNSt6vectorIiSaIiEE18_M_fill_initializeEmRKi
FNDA:1,_ZNSt6vectorI4EdgeSaIS0_EE21_M_default_initializeEm
FNDA:1,_ZNSt6vectorIS_I4EdgeSaIS0_EESaIS2_EE21_M_default_initializeEm
FNDA:1,_ZNSt6vectorIS_IiSaIiEESaIS1_EE21_M_default_initializeEm
FNDA:0,_ZNSt6vectorIS_IiSaIiEESaIS1_EE16_Temporary_valueC2IJRKS1_EEEPS3_DpOT_
FNDA:0,_ZNSt6vectorIS_IiSaIiEESaIS1_EE16_Temporary_valueD2Ev
FNDA:0,_ZNSt6vectorIS_IiSaIiEESaIS1_EE16_Temporary_value6_M_valEv
FNDA:0,_ZNSt6vectorIS_IiSaIiEESaIS1_EE16_Temporary_value6_M_ptrEv
FNDA:0,_ZNSt6vectorIS_IiSaIiEESaIS1_EE16_Temporary_value8_StorageC2Ev
FNDA:0,_ZNSt6vectorIS_IiSaIiEESaIS1_EE16_Temporary_value8_StorageD2Ev
FNDA:2,_ZNKSt6vectorI4EdgeSaIS0_EE12_M_check_lenEmPKc
FNDA:2,_ZNKSt6vectorIS_IiSaIiEESaIS1_EE12_M_check_lenEmPKc
FNDA:4,_ZNKSt6vectorISt5tupleIJiiiiEESaIS1_EE12_M_check_lenEmPKc
FNDA:2,_ZNKSt6vectorIiSaIiEE12_M_check_lenEmPKc
FNDA:1,_ZNSt6vectorI4EdgeSaIS0_EE17_S_check_init_lenEmRKS1_
FNDA:1,_ZNSt6vectorIS_I4EdgeSaIS0_EESaIS2_EE17_S_check_init_lenEmRKS3_
FNDA:1,_ZNSt6vectorIS_IiSaIiEESaIS1_EE17_S_check_init_lenEmRKS2_
FNDA:7,_ZNSt6vectorIiSaIiEE17_S_check_init_lenEmRKS0_
FNDA:5,_ZNSt6vectorI4EdgeSaIS0_EE11_S_max_sizeERKS1_
FNDA:1,_ZNSt6vectorIS_I4EdgeSaIS0_EESaIS2_EE11_S_max_sizeERKS3_
FNDA:5,_ZNSt6vectorIS_IiSaIiEESaIS1_EE11_S_max_sizeERKS2_
FNDA:8,_ZNSt6vectorISt5tupleIJiiiiEESaIS1_EE11_S_max_sizeERKS2_
FNDA:11,_ZNSt6vectorIiSaIiEE11_S_max_sizeERKS0_
FNDA:0,_ZNSt6vectorIS_IiSaIiEESaIS1_EE15_M_erase_at_endEPS1_
FNDA:0,_ZNSt6vectorIiSaIiEE15_M_erase_at_endEPi
FNDA:4,_ZNSt6vectorIS_IiSaIiEESaIS1_EE14_M_move_assignEOS3_St17integral_constantIbLb1EE
FNDA:4,_ZNSt6vectorISt5tupleIJiiiiEESaIS1_EE14_M_move_assignEOS3_St17integral_constantIbLb1EE
FNDA:0,_ZNSt6vectorIiSaIiEE14_M_move_assignEOS1_St17integral_constantIbLb1EE
FNDA:8,_ZNSt12_Vector_baseI4EdgeSaIS0_EE19_M_get_Tp_allocatorEv
FNDA:27,_ZNSt12_Vector_baseISt5tupleIJiiiiEESaIS1_EE19_M_get_Tp_allocatorEv
FNDA:2,_ZNSt12_Vector_baseISt6vectorI4EdgeSaIS1_EESaIS3_EE19_M_get_Tp_allocatorEv
FNDA:39,_ZNSt12_Vector_baseISt6vectorIiSaIiEESaIS2_EE19_M_get_Tp_allocatorEv
FNDA:46,_ZNSt12_Vector_baseIiSaIiEE19_M_get_Tp_allocatorEv
FNDA:4,_ZNKSt12_Vector_baseI4EdgeSaIS0_EE19_M_get_Tp_allocatorEv
FNDA:12,_ZNKSt12_Vector_baseISt5tupleIJiiiiEESaIS1_EE19_M_get_Tp_allocatorEv
FNDA:15,_ZNKSt12_Vector_baseISt6vectorIiSaIiEESaIS2_EE19_M_get_Tp_allocatorEv
FNDA:17,_ZNKSt12_Vector_baseIiSaIiEE19_M_get_Tp_allocatorEv
FNDA:4,_ZNKSt12_Vector_baseISt5tupleIJiiiiEESaIS1_EE13get_allocatorEv
FNDA:4,_ZNKSt12_Vector_baseISt6vectorIiSaIiEESaIS2_EE13get_allocatorEv
FNDA:0,_ZNKSt12_Vector_baseIiSaIiEE13get_allocatorEv
FNDA:2,_ZNSt12_Vector_baseI4EdgeSaIS0_EEC2Ev
FNDA:7,_ZNSt12_Vector_baseISt5tupleIJiiiiEESaIS1_EEC2Ev
FNDA:3,_ZNSt12_Vector_baseISt6vectorIiSaIiEESaIS2_EEC2Ev
FNDA:2,_ZNSt12_Vector_baseIiSaIiEEC2Ev
FNDA:4,_ZNSt12_Vector_baseISt5tupleIJiiiiEESaIS1_EEC2ERKS2_
FNDA:4,_ZNSt12_Vector_baseISt6vectorIiSaIiEESaIS2_EEC2ERKS3_
FNDA:0,_ZNSt12_Vector_baseIiSaIiEEC2ERKS0_
FNDA:1,_ZNSt12_Vector_baseI4EdgeSaIS0_EEC2EmRKS1_
FNDA:0,_ZNSt12_Vector_baseISt5tupleIJiiiiEESaIS1_EEC2EmRKS2_
FNDA:1,_ZNSt12_Vector_baseISt6vectorI4EdgeSaIS1_EESaIS3_EEC2EmRKS4_
FNDA:8,_ZNSt12_Vector_baseISt6vectorIiSaIiEESaIS2_EEC2EmRKS3_
FNDA:20,_ZNSt12_Vector_baseIiSaIiEEC2EmRKS0_
FNDA:0,_ZNSt12_Vector_baseIiSaIiEEC2EOS1_
FNDA:3,_ZNSt12_Vector_baseI4EdgeSaIS0_EED2Ev
FNDA:11,_ZNSt12_Vector_baseISt5tupleIJiiiiEESaIS1_EED2Ev
FNDA:1,_ZNSt12_Vector_baseISt6vectorI4EdgeSaIS1_EESaIS3_EED2Ev
FNDA:15,_ZNSt12_Vector_baseISt6vectorIiSaIiEESaIS2_EED2Ev
FNDA:22,_ZNSt12_Vector_baseIiSaIiEED2Ev
FNDA:3,_ZNSt12_Vector_baseI4EdgeSaIS0_EE11_M_allocateEm
FNDA:4,_ZNSt12_Vector_baseISt5tupleIJiiiiEESaIS1_EE11_M_allocateEm
FNDA:1,_ZNSt12_Vector_baseISt6vectorI4EdgeSaIS1_EESaIS3_EE11_M_allocateEm
FNDA:10,_ZNSt12_Vector_baseISt6vectorIiSaIiEESaIS2_EE11_M_allocateEm
FNDA:22,_ZNSt12_Vector_baseIiSaIiEE11_M_allocateEm
FNDA:5,_ZNSt12_Vector_baseI4EdgeSaIS0_EE13_M_deallocateEPS0_m
FNDA:15,_ZNSt12_Vector_baseISt5tupleIJiiiiEESaIS1_EE13_M_deallocateEPS1_m
FNDA:1,_ZNSt12_Vector_baseISt6vectorI4EdgeSaIS1_EESaIS3_EE13_M_deallocateEPS3_m
FNDA:17,_ZNSt12_Vector_baseISt6vectorIiSaIiEESaIS2_EE13_M_deallocateEPS2_m
FNDA:24,_ZNSt12_Vector_baseIiSaIiEE13_M_deallocateEPim
FNDA:1,_ZNSt12_Vector_baseI4EdgeSaIS0_EE17_M_create_storageEm
FNDA:0,_ZNSt12_Vector_baseISt5tupleIJiiiiEESaIS1_EE17_M_create_storageEm
FNDA:1,_ZNSt12_Vector_baseISt6vectorI4EdgeSaIS1_EESaIS3_EE17_M_create_storageEm
FNDA:8,_ZNSt12_Vector_baseISt6vectorIiSaIiEESaIS2_EE17_M_create_storageEm
FNDA:20,_ZNSt12_Vector_baseIiSaIiEE17_M_create_storageEm
FNDA:4,_ZNSt6vectorI4EdgeSaIS0_EE11_S_relocateEPS0_S3_S3_RS1_
FNDA:8,_ZNSt6vectorISt5tupleIJiiiiEESaIS1_EE11_S_relocateEPS1_S4_S4_RS2_
FNDA:4,_ZNSt6vectorIiSaIiEE11_S_relocateEPiS2_S2_RS0_
FNDA:2,_ZNSt6vectorI4EdgeSaIS0_EEC2Ev
FNDA:3,_ZNSt6vectorIS_IiSaIiEESaIS1_EEC2Ev
FNDA:7,_ZNSt6vectorISt5tupleIJiiiiEESaIS1_EEC2Ev
FNDA:2,_ZNSt6vectorIiSaIiEEC2Ev
FNDA:4,_ZNSt6vectorIS_IiSaIiEESaIS1_EEC2ERKS2_
FNDA:4,_ZNSt6vectorISt5tupleIJiiiiEESaIS1_EEC2ERKS2_
FNDA:0,_ZNSt6vectorIiSaIiEEC2ERKS0_
FNDA:1,_ZNSt6vectorI4EdgeSaIS0_EEC2EmRKS1_
FNDA:1,_ZNSt6vectorIS_I4EdgeSaIS0_EESaIS2_EEC2EmRKS3_
FNDA:1,_ZNSt6vectorIS_IiSaIiEESaIS1_EEC2EmRKS2_
FNDA:7,_ZNSt6vectorIiSaIiEEC2EmRKiRKS0_
FNDA:7,_ZNSt6vectorIS_IiSaIiEESaIS1_EEC2ERKS3_
FNDA:0,_ZNSt6vectorISt5tupleIJiiiiEESaIS1_EEC2ERKS3_
FNDA:13,_ZNSt6vectorIiSaIiEEC2ERKS1_
FNDA:0,_ZNSt6vectorIiSaIiEEC2EOS1_
FNDA:3,_ZNSt6vectorI4EdgeSaIS0_EED2Ev
FNDA:1,_ZNSt6vectorIS_I4EdgeSaIS0_EESaIS2_EED2Ev
FNDA:15,_ZNSt6vectorIS_IiSaIiEESaIS1_EED2Ev
FNDA:11,_ZNSt6vectorISt5tupleIJiiiiEESaIS1_EED2Ev
FNDA:22,_ZNSt6vectorIiSaIiEED2Ev
FNDA:4,_ZNSt6vectorIS_IiSaIiEESaIS1_EEaSEOS3_
FNDA:4,_ZNSt6vectorISt5tupleIJiiiiEESaIS1_EEaSEOS3_
FNDA:0,_ZNSt6vectorIiSaIiEEaSEOS1_
FNDA:2,_ZNSt6vectorI4EdgeSaIS0_EE5beginEv
FNDA:5,_ZNSt6vectorISt5tupleIJiiiiEESaIS1_EE5beginEv
FNDA:10,_ZNSt6vectorIiSaIiEE5beginEv
FNDA:2,_ZNKSt6vectorI4EdgeSaIS0_EE5beginEv
FNDA:7,_ZNKSt6vectorIS_IiSaIiEESaIS1_EE5beginEv
FNDA:1,_ZNKSt6vectorISt5tupleIJiiiiEESaIS1_EE5beginEv
FNDA:13,_ZNKSt6vectorIiSaIiEE5beginEv
FNDA:4,_ZNSt6vectorI4EdgeSaIS0_EE3endEv
FNDA:2,_ZNSt6vectorIS_IiSaIiEESaIS1_EE3endEv
FNDA:9,_ZNSt6vectorISt5tupleIJiiiiEESaIS1_EE3endEv
FNDA:10,_ZNSt6vectorIiSaIiEE3endEv
FNDA:2,_ZNKSt6vectorI4EdgeSaIS0_EE3endEv
FNDA:7,_ZNKSt6vectorIS_IiSaIiEESaIS1_EE3endEv
FNDA:1,_ZNKSt6vectorISt5tupleIJiiiiEESaIS1_EE3endEv
FNDA:13,_ZNKSt6vectorIiSaIiEE3endEv
FNDA:3,_ZNSt12_Vector_baseI4EdgeSaIS0_EE17_Vector_impl_dataC2Ev
FNDA:19,_ZNSt12_Vector_baseISt5tupleIJiiiiEESaIS1_EE17_Vector_impl_dataC2Ev
FNDA:1,_ZNSt12_Vector_baseISt6vectorI4EdgeSaIS1_EESaIS3_EE17_Vector_impl_dataC2Ev
FNDA:23,_ZNSt12_Vector_baseISt6vectorIiSaIiEESaIS2_EE17_Vector_impl_dataC2Ev
FNDA:22,_ZNSt12_Vector_baseIiSaIiEE17_Vector_impl_dataC2Ev
FNDA:8,_ZNKSt6vectorI4EdgeSaIS0_EE4sizeEv
FNDA:21,_ZNKSt6vectorIS_IiSaIiEESaIS1_EE4sizeEv
FNDA:19,_ZNKSt6vectorISt5tupleIJiiiiEESaIS1_EE4sizeEv
FNDA:21,_ZNKSt6vectorIiSaIiEE4sizeEv
FNDA:4,_ZNKSt6vectorI4EdgeSaIS0_EE8max_sizeEv
FNDA:4,_ZNKSt6vectorIS_IiSaIiEESaIS1_EE8max_sizeEv
FNDA:8,_ZNKSt6vectorISt5tupleIJiiiiEESaIS1_EE8max_sizeEv
FNDA:4,_ZNKSt6vectorIiSaIiEE8max_sizeEv
FNF:158
FNH:133
DA:99,68
DA:100,68
DA:101,68
DA:105,0
DA:106,0
DA:107,0
DA:108,0
DA:113,48
DA:115,48
DA:116,48
DA:117,48
DA:118,48
DA:122,16
DA:126,16
DA:127,16
DA:128,16
DA:129,16
DA:130,16
DA:137,14
DA:142,14
DA:143,14
DA:146,38
DA:147,38
DA:148,38
DA:154,0
DA:155,0
DA:156,0
DA:301,122
DA:302,122
DA:306,48
DA:307,48
DA:311,8
DA:312,16
DA:315,14
DA:321,8
DA:322,8
DA:333,30
DA:334,30
DA:335,30
DA:338,0
DA:367,52
DA:369,52
DA:370,52
DA:371,52
DA:378,40
DA:381,77
DA:386,62
DA:389,62
DA:390,37
DA:391,62
DA:396,30
DA:398,30
DA:399,30
DA:400,30
DA:401,30
DA:504,16
DA:509,16
DA:531,14
DA:542,8
DA:543,8
DA:556,3
DA:557,3
DA:558,3
DA:569,7
DA:571,7
DA:572,7
DA:601,20
DA:603,40
DA:605,20
DA:606,20
DA:608,20
DA:609,20
DA:620,0
DA:733,52
DA:735,52
DA:736,52
DA:738,52
DA:766,8
DA:768,8
DA:771,8
DA:772,8
DA:873,17
DA:874,17
DA:883,23
DA:884,23
DA:893,25
DA:894,25
DA:903,23
DA:904,23
DA:992,69
DA:993,69
DA:998,20
DA:999,20
DA:1034,3
DA:1036,3
DA:1037,2
DA:1038,1
DA:1039,0
DA:1040,3
DA:1078,0
DA:1079,0
DA:1080,0
DA:1126,201
DA:1129,201
DA:1145,6
DA:1148,6
DA:1233,6
DA:1236,6
DA:1281,2
DA:1283,2
DA:1286,0
DA:1288,0
DA:1292,2
DA:1293,2
DA:1298,2
DA:1299,2
DA:1605,0
DA:1606,0
DA:1616,0
DA:1619,0
DA:1622,0
DA:1623,0
DA:1624,0
DA:1626,0
DA:1628,0
DA:1629,0
DA:1704,7
DA:1706,7
DA:1707,7
DA:1708,7
DA:1709,7
DA:1715,3
DA:1717,3
DA:1718,3
DA:1719,3
DA:1720,3
DA:1833,0
DA:1835,0
DA:1837,0
DA:1840,0
DA:1841,0
DA:1844,0
DA:1848,0
DA:1852,0
DA:1853,0
DA:1896,10
DA:1898,10
DA:1899,0
DA:1901,10
DA:1902,10
DA:1907,10
DA:1909,10
DA:1910,0
DA:1912,10
DA:1916,30
DA:1921,30
DA:1923,30
DA:1924,30
DA:1933,0
DA:1935,0
DA:1937,0
DA:1938,0
DA:1939,0
DA:1942,0
DA:1959,8
DA:1961,8
DA:1962,8
DA:1963,8
DA:1964,8
DA:1965,8
LF:170
LH:128
end_of_record
TN:
SF:/usr/include/c++/13/bits/unique_lock.h
FN:103,107,_ZNSt11unique_lockISt5mutexED2Ev
FN:133,144,_ZNSt11unique_lockISt5mutexE4lockEv
FN:194,203,_ZNSt11unique_lockISt5mutexE6unlockEv
FN:68,73,_ZNSt11unique_lockISt5mutexEC2ERS0_
FNDA:24,_ZNSt11unique_lockISt5mutexED2Ev
FNDA:24,_ZNSt11unique_lockISt5mutexE4lockEv
FNDA:24,_ZNSt11unique_lockISt5mutexE6unlockEv
FNDA:24,_ZNSt11unique_lockISt5mutexEC2ERS0_
FNF:4
FNH:4
DA:68,24
DA:69,24
DA:71,24
DA:72,24
DA:73,24
DA:103,24
DA:105,24
DA:106,24
DA:107,24
DA:133,24
DA:135,24
DA:136,0
DA:137,24
DA:138,0
DA:141,24
DA:142,24
DA:144,24
DA:194,24
DA:196,24
DA:197,0
DA:198,24
DA:200,24
DA:201,24
DA:203,24
LF:24
LH:21
end_of_record
TN:
SF:/usr/include/c++/13/bits/unique_ptr.h
FN:176,176,_ZNSt15__uniq_ptr_implINSt6thread6_StateESt14default_deleteIS1_EEC2EPS1_
FN:197,197,_ZNSt15__uniq_ptr_implINSt6thread6_StateESt14default_deleteIS1_EE6_M_ptrEv
FN:201,201,_ZNSt15__uniq_ptr_implINSt6thread6_StateESt14default_deleteIS1_EE10_M_deleterEv
FN:317,319,_ZNSt10unique_ptrINSt6thread6_StateESt14default_deleteIS1_EEC2IS3_vEEPS1_
FN:398,406,_ZNSt10unique_ptrINSt6thread6_StateESt14default_deleteIS1_EED2Ev
FN:475,476,_ZNSt10unique_ptrINSt6thread6_StateESt14default_deleteIS1_EE11get_deleterEv
FN:93,100,_ZNKSt14default_deleteINSt6thread6_StateEEclEPS1_
FNDA:3,_ZNSt15__uniq_ptr_implINSt6thread6_StateESt14default_deleteIS1_EEC2EPS1_
FNDA:6,_ZNSt15__uniq_ptr_implINSt6thread6_StateESt14default_deleteIS1_EE6_M_ptrEv
FNDA:0,_ZNSt15__uniq_ptr_implINSt6thread6_StateESt14default_deleteIS1_EE10_M_deleterEv
FNDA:3,_ZNSt10unique_ptrINSt6thread6_StateESt14default_deleteIS1_EEC2IS3_vEEPS1_
FNDA:3,_ZNSt10unique_ptrINSt6thread6_StateESt14default_deleteIS1_EED2Ev
FNDA:0,_ZNSt10unique_ptrINSt6thread6_StateESt14default_deleteIS1_EE11get_deleterEv
FNDA:0,_ZNKSt14default_deleteINSt6thread6_StateEEclEPS1_
FNF:7
FNH:4
DA:93,0
DA:99,0
DA:100,0
DA:176,3
DA:197,6
DA:201,0
DA:317,3
DA:318,3
DA:319,3
DA:398,3
DA:402,3
DA:403,3
DA:404,0
DA:405,3
DA:406,3
DA:475,0
DA:476,0
LF:17
LH:10
end_of_record
TN:
SF:/usr/include/c++/13/bits/unordered_set.h
FN:142,142,_ZNSt13unordered_setIiSt4hashIiESt8equal_toIiESaIiEEC2Ev
FN:341,342,_ZNSt13unordered_setIiSt4hashIiESt8equal_toIiESaIiEE3endEv
FN:428,429,_ZNSt13unordered_setIiSt4hashIiESt8equal_toIiESaIiEE6insertERKi
FN:657,658,_ZNSt13unordered_setIiSt4hashIiESt8equal_toIiESaIiEE4findERKi
FNDA:2,_ZNSt13unordered_setIiSt4hashIiESt8equal_toIiESaIiEEC2Ev
FNDA:2,_ZNSt13unordered_setIiSt4hashIiESt8equal_toIiESaIiEE3endEv
FNDA:1,_ZNSt13unordered_setIiSt4hashIiESt8equal_toIiESaIiEE6insertERKi
FNDA:2,_ZNSt13unordered_setIiSt4hashIiESt8equal_toIiESaIiEE4findERKi
FNF:4
FNH:4
DA:142,2
DA:341,2
DA:342,2
DA:428,1
DA:429,1
DA:657,2
DA:658,2
LF:7
LH:7
end_of_record
TN:
SF:/usr/include/c++/13/bits/vector.tcc
FN:111,127,_ZNSt6vectorI4EdgeSaIS0_EE12emplace_backIJS0_EEERS0_DpOT_
FN:111,127,_ZNSt6vectorISt5tupleIJiiiiEESaIS1_EE12emplace_backIJRiS5_S5_S5_EEERS1_DpOT_
FN:111,127,_ZNSt6vectorISt5tupleIJiiiiEESaIS1_EE12emplace_backIJRiS5_S5_mEEERS1_DpOT_
FN:210,265,_ZNSt6vectorIiSaIiEEaSERKS1_
FN:445,524,_ZNSt6vectorI4EdgeSaIS0_EE17_M_realloc_insertIJS0_EEEvN9__gnu_cxx17__normal_iteratorIPS0_S2_EEDpOT_
FN:445,524,_ZNSt6vectorISt5tupleIJiiiiEESaIS1_EE17_M_realloc_insertIJRiS5_S5_S5_EEEvN9__gnu_cxx17__normal_iteratorIPS1_S3_EEDpOT_
FN:445,524,_ZNSt6vectorISt5tupleIJiiiiEESaIS1_EE17_M_realloc_insertIJRiS5_S5_mEEEvN9__gnu_cxx17__normal_iteratorIPS1_S3_EEDpOT_
FN:445,524,_ZNSt6vectorIiSaIiEE17_M_realloc_insertIJRKiEEEvN9__gnu_cxx17__normal_iteratorIPiS1_EEDpOT_
FN:529,628,_ZNSt6vectorIS_IiSaIiEESaIS1_EE14_M_fill_insertEN9__gnu_cxx17__normal_iteratorIPS1_S3_EEmRKS1_
FNDA:2,_ZNSt6vectorI4EdgeSaIS0_EE12emplace_backIJS0_EEERS0_DpOT_
FNDA:2,_ZNSt6vectorISt5tupleIJiiiiEESaIS1_EE12emplace_backIJRiS5_S5_S5_EEERS1_DpOT_
FNDA:2,_ZNSt6vectorISt5tupleIJiiiiEESaIS1_EE12emplace_backIJRiS5_S5_mEEERS1_DpOT_
FNDA:0,_ZNSt6vectorIiSaIiEEaSERKS1_
FNDA:2,_ZNSt6vectorI4EdgeSaIS0_EE17_M_realloc_insertIJS0_EEEvN9__gnu_cxx17__normal_iteratorIPS0_S2_EEDpOT_
FNDA:2,_ZNSt6vectorISt5tupleIJiiiiEESaIS1_EE17_M_realloc_insertIJRiS5_S5_S5_EEEvN9__gnu_cxx17__normal_iteratorIPS1_S3_EEDpOT_
FNDA:2,_ZNSt6vectorISt5tupleIJiiiiEESaIS1_EE17_M_realloc_insertIJRiS5_S5_mEEEvN9__gnu_cxx17__normal_iteratorIPS1_S3_EEDpOT_
FNDA:2,_ZNSt6vectorIiSaIiEE17_M_realloc_insertIJRKiEEEvN9__gnu_cxx17__normal_iteratorIPiS1_EEDpOT_
FNDA:2,_ZNSt6vectorIS_IiSaIiEESaIS1_EE14_M_fill_insertEN9__gnu_cxx17__normal_iteratorIPS1_S3_EEmRKS1_
FNF:9
FNH:8
DA:111,6
DA:114,6
DA:117,0
DA:119,0
DA:123,6
DA:125,6
DA:210,0
DA:213,0
DA:217,0
DA:219,0
DA:220,0
DA:223,0
DA:224,0
DA:225,0
DA:226,0
DA:227,0
DA:228,0
DA:229,0
DA:231,0
DA:232,0
DA:235,0
DA:236,0
DA:238,0
DA:240,0
DA:241,0
DA:242,0
DA:243,0
DA:244,0
DA:245,0
DA:246,0
DA:248,0
DA:250,0
DA:251,0
DA:255,0
DA:257,0
DA:258,0
DA:260,0
DA:262,0
DA:264,0
DA:445,8
DA:455,8
DA:456,8
DA:457,8
DA:458,8
DA:459,8
DA:460,8
DA:468,8
DA:469,8
DA:475,8
DA:480,8
DA:481,8
DA:483,8
DA:485,8
DA:486,8
DA:519,8
DA:520,8
DA:521,8
DA:522,8
DA:523,8
DA:524,8
DA:529,2
DA:532,2
DA:534,2
DA:535,2
DA:540,0
DA:541,0
DA:543,0
DA:544,0
DA:545,0
DA:548,0
DA:551,0
DA:552,0
DA:554,0
DA:556,0
DA:562,0
DA:563,0
DA:566,0
DA:568,0
DA:570,0
DA:571,0
DA:573,0
DA:575,0
DA:580,2
DA:581,2
DA:582,2
DA:585,2
DA:586,2
DA:587,2
DA:588,2
DA:592,2
DA:594,2
DA:595,2
DA:599,2
DA:601,2
DA:605,2
DA:607,0
DA:609,0
DA:610,0
DA:611,0
DA:612,0
DA:615,0
DA:616,0
DA:617,0
DA:619,2
DA:621,2
DA:622,2
DA:623,2
DA:624,2
DA:625,2
DA:628,2
LF:110
LH:49
end_of_record
TN:
SF:/usr/include/c++/13/condition_variable
FN:102,106,_ZNSt18condition_variable4waitIZZN12ActiveObjectC4EvENKUlvE_clEvEUlvE_EEvRSt11unique_lockISt5mutexET_
FNDA:12,_ZNSt18condition_variable4waitIZZN12ActiveObjectC4EvENKUlvE_clEvEUlvE_EEvRSt11unique_lockISt5mutexET_
FNF:1
FNH:1
DA:102,12
DA:104,24
DA:105,12
DA:106,12
LF:4
LH:4
end_of_record
TN:
SF:/usr/include/c++/13/ext/aligned_buffer.h
FN:104,107,_ZN9__gnu_cxx16__aligned_bufferIiE7_M_addrEv
FN:110,113,_ZNK9__gnu_cxx16__aligned_bufferIiE7_M_addrEv
FN:116,117,_ZN9__gnu_cxx16__aligned_bufferIiE6_M_ptrEv
FN:120,121,_ZNK9__gnu_cxx16__aligned_bufferIiE6_M_ptrEv
FN:64,65,_ZN9__gnu_cxx16__aligned_membufI4EdgeE7_M_addrEv
FN:68,69,_ZNK9__gnu_cxx16__aligned_membufI4EdgeE7_M_addrEv
FN:72,73,_ZN9__gnu_cxx16__aligned_membufI4EdgeE6_M_ptrEv
FN:76,77,_ZNK9__gnu_cxx16__aligned_membufI4EdgeE6_M_ptrEv
FNDA:2,_ZN9__gnu_cxx16__aligned_bufferIiE7_M_addrEv
FNDA:1,_ZNK9__gnu_cxx16__aligned_bufferIiE7_M_addrEv
FNDA:2,_ZN9__gnu_cxx16__aligned_bufferIiE6_M_ptrEv
FNDA:1,_ZNK9__gnu_cxx16__aligned_bufferIiE6_M_ptrEv
FNDA:4,_ZN9__gnu_cxx16__aligned_membufI4EdgeE7_M_addrEv
FNDA:2,_ZNK9__gnu_cxx16__aligned_membufI4EdgeE7_M_addrEv
FNDA:4,_ZN9__gnu_cxx16__aligned_membufI4EdgeE6_M_ptrEv
FNDA:2,_ZNK9__gnu_cxx16__aligned_membufI4EdgeE6_M_ptrEv
FNF:8
FNH:8
DA:64,4
DA:65,4
DA:68,2
DA:69,2
DA:72,4
DA:73,4
DA:76,2
DA:77,2
DA:104,2
DA:106,2
DA:110,1
DA:112,1
DA:116,2
DA:117,2
DA:120,1
DA:121,1
LF:16
LH:16
end_of_record
TN:
SF:/usr/include/c++/13/ext/alloc_traits.h
FNF:0
FNH:0
DA:98,22
DA:106,0
DA:118,0
LF:3
LH:1
end_of_record
TN:
SF:/usr/include/c++/13/ext/string_conversions.h
FN:56,96,_ZN9__gnu_cxx6__stoaIlicJiEEET0_PFT_PKT1_PPS3_DpT2_EPKcS5_PmS9_
FN:65,65,_ZZN9__gnu_cxx6__stoaIlicJiEEET0_PFT_PKT1_PPS3_DpT2_EPKcS5_PmS9_EN11_Save_errnoC2Ev
FN:66,66,_ZZN9__gnu_cxx6__stoaIlicJiEEET0_PFT_PKT1_PPS3_DpT2_EPKcS5_PmS9_EN11_Save_errnoD2Ev
FN:75,79,_ZZN9__gnu_cxx6__stoaIlicJiEEET0_PFT_PKT1_PPS3_DpT2_EPKcS5_PmS9_EN10_Range_chk6_S_chkElSt17integral_constantIbLb1EE
FNDA:4,_ZN9__gnu_cxx6__stoaIlicJiEEET0_PFT_PKT1_PPS3_DpT2_EPKcS5_PmS9_
FNDA:4,_ZZN9__gnu_cxx6__stoaIlicJiEEET0_PFT_PKT1_PPS3_DpT2_EPKcS5_PmS9_EN11_Save_errnoC2Ev
FNDA:4,_ZZN9__gnu_cxx6__stoaIlicJiEEET0_PFT_PKT1_PPS3_DpT2_EPKcS5_PmS9_EN11_Save_errnoD2Ev
FNDA:4,_ZZN9__gnu_cxx6__stoaIlicJiEEET0_PFT_PKT1_PPS3_DpT2_EPKcS5_PmS9_EN10_Range_chk6_S_chkElSt17integral_constantIbLb1EE
FNF:4
FNH:4
DA:56,4
DA:65,4
DA:66,4
DA:68,4
DA:75,4
DA:78,4
DA:82,4
DA:84,4
DA:85,0
DA:86,8
DA:87,4
DA:88,0
DA:90,4
DA:92,4
DA:93,0
DA:95,4
DA:96,4
LF:17
LH:14
end_of_record
TN:
SF:/usr/include/c++/13/limits
FN:1068,1068,_ZNSt14numeric_limitsIiE3maxEv
FNDA:8,_ZNSt14numeric_limitsIiE3maxEv
FNF:1
FNH:1
DA:1068,8
LF:1
LH:1
end_of_record
TN:
SF:/usr/include/c++/13/new
FN:174,175,_ZnwmPv
FN:180,180,_ZdlPvS_
FNDA:54,_ZnwmPv
FNDA:0,_ZdlPvS_
FNF:2
FNH:1
DA:174,54
DA:175,54
DA:180,0
LF:3
LH:2
end_of_record
TN:
SF:/usr/include/c++/13/tuple
FN:1124,1129,_ZNSt5tupleIJRiS0_S0_RKSt15_Swallow_assignEEaSIJiiiiEEENSt9enable_ifIXcl12__assignableIDpRKT_EEERS4_E4typeERKS_IJDpS7_EE
FN:1124,1129,_ZNSt5tupleIJRiS0_S0_S0_EEaSIJiiiiEEENSt9enable_ifIXcl12__assignableIDpRKT_EEERS1_E4typeERKS_IJDpS4_EE
FN:125,125,_ZNSt10_Head_baseILm1ESt14default_deleteINSt6thread6_StateEELb1EE7_M_headERS4_
FN:1317,1319,_ZNSt5tupleIJPNSt6thread6_StateESt14default_deleteIS1_EEEC2ILb1ELb1EEEv
FN:1787,1788,_ZSt12__get_helperILm0EPNSt6thread6_StateEJSt14default_deleteIS1_EEERT0_RSt11_Tuple_implIXT_EJS5_DpT1_EE
FN:1787,1788,_ZSt12__get_helperILm0EZN12ActiveObjectC4EvEUlvE_JEERT0_RSt11_Tuple_implIXT_EJS2_DpT1_EE
FN:1787,1788,_ZSt12__get_helperILm1ESt14default_deleteINSt6thread6_StateEEJEERT0_RSt11_Tuple_implIXT_EJS4_DpT1_EE
FN:1792,1793,_ZSt12__get_helperILm2EiJiEERKT0_RKSt11_Tuple_implIXT_EJS0_DpT1_EE
FN:1803,1804,_ZSt3getILm0EJPNSt6thread6_StateESt14default_deleteIS1_EEERNSt13tuple_elementIXT_ESt5tupleIJDpT0_EEE4typeERS9_
FN:1803,1804,_ZSt3getILm1EJPNSt6thread6_StateESt14default_deleteIS1_EEERNSt13tuple_elementIXT_ESt5tupleIJDpT0_EEE4typeERS9_
FN:1809,1810,_ZSt3getILm2EJiiiiEERKNSt13tuple_elementIXT_ESt5tupleIJDpT0_EEE4typeERKS4_
FN:1815,1819,_ZSt3getILm0EJZN12ActiveObjectC4EvEUlvE_EEONSt13tuple_elementIXT_ESt5tupleIJDpT0_EEE4typeEOS6_
FN:190,191,_ZNSt10_Head_baseILm0EPNSt6thread6_StateELb0EEC2Ev
FN:193,194,_ZNSt10_Head_baseILm0ERiLb0EEC2ES0_
FN:193,194,_ZNSt10_Head_baseILm1ERiLb0EEC2ES0_
FN:193,194,_ZNSt10_Head_baseILm2ERiLb0EEC2ES0_
FN:193,194,_ZNSt10_Head_baseILm3ERKSt15_Swallow_assignLb0EEC2ES2_
FN:193,194,_ZNSt10_Head_baseILm3ERiLb0EEC2ES0_
FN:200,201,_ZNSt10_Head_baseILm0EZN12ActiveObjectC4EvEUlvE_Lb0EEC2IS1_EEOT_
FN:200,201,_ZNSt10_Head_baseILm0EiLb0EEC2IRiEEOT_
FN:200,201,_ZNSt10_Head_baseILm1EiLb0EEC2IRiEEOT_
FN:200,201,_ZNSt10_Head_baseILm2EiLb0EEC2IRiEEOT_
FN:200,201,_ZNSt10_Head_baseILm3EiLb0EEC2IRiEEOT_
FN:200,201,_ZNSt10_Head_baseILm3EiLb0EEC2ImEEOT_
FN:2169,2170,_ZSt3tieIJiiiKSt15_Swallow_assignEESt5tupleIJDpRT_EES5_
FN:2169,2170,_ZSt3tieIJiiiiEESt5tupleIJDpRT_EES3_
FN:2212,2213,_ZNKSt15_Swallow_assignaSIiEERKS_RKT_
FN:234,234,_ZNSt10_Head_baseILm0EPNSt6thread6_StateELb0EE7_M_headERS3_
FN:234,234,_ZNSt10_Head_baseILm0ERiLb0EE7_M_headERS1_
FN:234,234,_ZNSt10_Head_baseILm0EZN12ActiveObjectC4EvEUlvE_Lb0EE7_M_headERS2_
FN:234,234,_ZNSt10_Head_baseILm1ERiLb0EE7_M_headERS1_
FN:234,234,_ZNSt10_Head_baseILm2ERiLb0EE7_M_headERS1_
FN:234,234,_ZNSt10_Head_baseILm3ERKSt15_Swallow_assignLb0EE7_M_headERS3_
FN:234,234,_ZNSt10_Head_baseILm3ERiLb0EE7_M_headERS1_
FN:237,237,_ZNSt10_Head_baseILm0EiLb0EE7_M_headERKS0_
FN:237,237,_ZNSt10_Head_baseILm1EiLb0EE7_M_headERKS0_
FN:237,237,_ZNSt10_Head_baseILm2EiLb0EE7_M_headERKS0_
FN:237,237,_ZNSt10_Head_baseILm3EiLb0EE7_M_headERKS0_
FN:269,269,_ZNSt11_Tuple_implILm0EJPNSt6thread6_StateESt14default_deleteIS1_EEE7_M_headERS5_
FN:269,269,_ZNSt11_Tuple_implILm0EJRiS0_S0_RKSt15_Swallow_assignEE7_M_headERS4_
FN:269,269,_ZNSt11_Tuple_implILm0EJRiS0_S0_S0_EE7_M_headERS1_
FN:269,269,_ZNSt11_Tuple_implILm1EJRiS0_RKSt15_Swallow_assignEE7_M_headERS4_
FN:269,269,_ZNSt11_Tuple_implILm1EJRiS0_S0_EE7_M_headERS1_
FN:269,269,_ZNSt11_Tuple_implILm2EJRiRKSt15_Swallow_assignEE7_M_headERS4_
FN:269,269,_ZNSt11_Tuple_implILm2EJRiS0_EE7_M_headERS1_
FN:272,272,_ZNSt11_Tuple_implILm0EJiiiiEE7_M_headERKS0_
FN:272,272,_ZNSt11_Tuple_implILm1EJiiiEE7_M_headERKS0_
FN:272,272,_ZNSt11_Tuple_implILm2EJiiEE7_M_headERKS0_
FN:275,275,_ZNSt11_Tuple_implILm0EJRiS0_S0_RKSt15_Swallow_assignEE7_M_tailERS4_
FN:275,275,_ZNSt11_Tuple_implILm0EJRiS0_S0_S0_EE7_M_tailERS1_
FN:275,275,_ZNSt11_Tuple_implILm1EJRiS0_RKSt15_Swallow_assignEE7_M_tailERS4_
FN:275,275,_ZNSt11_Tuple_implILm1EJRiS0_S0_EE7_M_tailERS1_
FN:275,275,_ZNSt11_Tuple_implILm2EJRiRKSt15_Swallow_assignEE7_M_tailERS4_
FN:275,275,_ZNSt11_Tuple_implILm2EJRiS0_EE7_M_tailERS1_
FN:278,278,_ZNSt11_Tuple_implILm0EJiiiiEE7_M_tailERKS0_
FN:278,278,_ZNSt11_Tuple_implILm1EJiiiEE7_M_tailERKS0_
FN:278,278,_ZNSt11_Tuple_implILm2EJiiEE7_M_tailERKS0_
FN:280,281,_ZNSt11_Tuple_implILm0EJPNSt6thread6_StateESt14default_deleteIS1_EEEC2Ev
FN:284,286,_ZNSt11_Tuple_implILm0EJRiS0_S0_RKSt15_Swallow_assignEEC2ES0_S0_S0_S3_
FN:284,286,_ZNSt11_Tuple_implILm0EJRiS0_S0_S0_EEC2ES0_S0_S0_S0_
FN:284,286,_ZNSt11_Tuple_implILm1EJRiS0_RKSt15_Swallow_assignEEC2ES0_S0_S3_
FN:284,286,_ZNSt11_Tuple_implILm1EJRiS0_S0_EEC2ES0_S0_S0_
FN:284,286,_ZNSt11_Tuple_implILm2EJRiRKSt15_Swallow_assignEEC2ES0_S3_
FN:284,286,_ZNSt11_Tuple_implILm2EJRiS0_EEC2ES0_S0_
FN:291,294,_ZNSt11_Tuple_implILm0EJiiiiEEC2IRiJS2_S2_S2_EvEEOT_DpOT0_
FN:291,294,_ZNSt11_Tuple_implILm0EJiiiiEEC2IRiJS2_S2_mEvEEOT_DpOT0_
FN:291,294,_ZNSt11_Tuple_implILm1EJiiiEEC2IRiJS2_S2_EvEEOT_DpOT0_
FN:291,294,_ZNSt11_Tuple_implILm1EJiiiEEC2IRiJS2_mEvEEOT_DpOT0_
FN:291,294,_ZNSt11_Tuple_implILm2EJiiEEC2IRiJS2_EvEEOT_DpOT0_
FN:291,294,_ZNSt11_Tuple_implILm2EJiiEEC2IRiJmEvEEOT_DpOT0_
FN:302,302,_ZNSt11_Tuple_implILm0EJiiiiEEC2EOS0_
FN:302,302,_ZNSt11_Tuple_implILm1EJiiiEEC2EOS0_
FN:302,302,_ZNSt11_Tuple_implILm2EJiiEEC2EOS0_
FN:427,432,_ZNSt11_Tuple_implILm0EJRiS0_S0_RKSt15_Swallow_assignEE9_M_assignIJiiiiEEEvRKS_ILm0EJDpT_EE
FN:427,432,_ZNSt11_Tuple_implILm0EJRiS0_S0_S0_EE9_M_assignIJiiiiEEEvRKS_ILm0EJDpT_EE
FN:427,432,_ZNSt11_Tuple_implILm1EJRiS0_RKSt15_Swallow_assignEE9_M_assignIJiiiEEEvRKS_ILm1EJDpT_EE
FN:427,432,_ZNSt11_Tuple_implILm1EJRiS0_S0_EE9_M_assignIJiiiEEEvRKS_ILm1EJDpT_EE
FN:427,432,_ZNSt11_Tuple_implILm2EJRiRKSt15_Swallow_assignEE9_M_assignIJiiEEEvRKS_ILm2EJDpT_EE
FN:427,432,_ZNSt11_Tuple_implILm2EJRiS0_EE9_M_assignIJiiEEEvRKS_ILm2EJDpT_EE
FN:497,497,_ZNSt11_Tuple_implILm0EJZN12ActiveObjectC4EvEUlvE_EE7_M_headERS2_
FN:497,497,_ZNSt11_Tuple_implILm1EJSt14default_deleteINSt6thread6_StateEEEE7_M_headERS4_
FN:497,497,_ZNSt11_Tuple_implILm3EJRKSt15_Swallow_assignEE7_M_headERS3_
FN:497,497,_ZNSt11_Tuple_implILm3EJRiEE7_M_headERS1_
FN:500,500,_ZNSt11_Tuple_implILm3EJiEE7_M_headERKS0_
FN:503,504,_ZNSt11_Tuple_implILm1EJSt14default_deleteINSt6thread6_StateEEEEC2Ev
FN:507,509,_ZNSt11_Tuple_implILm3EJRKSt15_Swallow_assignEEC2ES2_
FN:507,509,_ZNSt11_Tuple_implILm3EJRiEEC2ES0_
FN:513,515,_ZNSt11_Tuple_implILm0EJZN12ActiveObjectC4EvEUlvE_EEC2IS1_EEOT_
FN:513,515,_ZNSt11_Tuple_implILm3EJiEEC2IRiEEOT_
FN:513,515,_ZNSt11_Tuple_implILm3EJiEEC2ImEEOT_
FN:527,530,_ZNSt11_Tuple_implILm3EJiEEC2EOS0_
FN:632,635,_ZNSt11_Tuple_implILm3EJRKSt15_Swallow_assignEE9_M_assignIiEEvRKS_ILm3EJT_EE
FN:632,635,_ZNSt11_Tuple_implILm3EJRiEE9_M_assignIiEEvRKS_ILm3EJT_EE
FN:81,82,_ZNSt10_Head_baseILm1ESt14default_deleteINSt6thread6_StateEELb1EEC2Ev
FN:874,876,_ZNSt5tupleIJRiS0_S0_RKSt15_Swallow_assignEEC2ILb1ELb1EEES0_S0_S0_S3_
FN:874,876,_ZNSt5tupleIJRiS0_S0_S0_EEC2ILb1ELb1EEES0_S0_S0_S0_
FN:889,891,_ZNSt5tupleIJZN12ActiveObjectC4EvEUlvE_EEC2IJS1_ELb1ELb1EEEDpOT_
FN:889,891,_ZNSt5tupleIJiiiiEEC2IJRiS2_S2_S2_ELb1ELb1EEEDpOT_
FN:889,891,_ZNSt5tupleIJiiiiEEC2IJRiS2_S2_mELb1ELb1EEEDpOT_
FN:903,903,_ZNSt5tupleIJiiiiEEC2EOS0_
FNDA:2,_ZNSt5tupleIJRiS0_S0_RKSt15_Swallow_assignEEaSIJiiiiEEENSt9enable_ifIXcl12__assignableIDpRKT_EEERS4_E4typeERKS_IJDpS7_EE
FNDA:3,_ZNSt5tupleIJRiS0_S0_S0_EEaSIJiiiiEEENSt9enable_ifIXcl12__assignableIDpRKT_EEERS1_E4typeERKS_IJDpS4_EE
FNDA:0,_ZNSt10_Head_baseILm1ESt14default_deleteINSt6thread6_StateEELb1EE7_M_headERS4_
FNDA:3,_ZNSt5tupleIJPNSt6thread6_StateESt14default_deleteIS1_EEEC2ILb1ELb1EEEv
FNDA:6,_ZSt12__get_helperILm0EPNSt6thread6_StateEJSt14default_deleteIS1_EEERT0_RSt11_Tuple_implIXT_EJS5_DpT1_EE
FNDA:3,_ZSt12__get_helperILm0EZN12ActiveObjectC4EvEUlvE_JEERT0_RSt11_Tuple_implIXT_EJS2_DpT1_EE
FNDA:0,_ZSt12__get_helperILm1ESt14default_deleteINSt6thread6_StateEEJEERT0_RSt11_Tuple_implIXT_EJS4_DpT1_EE
FNDA:1,_ZSt12__get_helperILm2EiJiEERKT0_RKSt11_Tuple_implIXT_EJS0_DpT1_EE
FNDA:6,_ZSt3getILm0EJPNSt6thread6_StateESt14default_deleteIS1_EEERNSt13tuple_elementIXT_ESt5tupleIJDpT0_EEE4typeERS9_
FNDA:0,_ZSt3getILm1EJPNSt6thread6_StateESt14default_deleteIS1_EEERNSt13tuple_elementIXT_ESt5tupleIJDpT0_EEE4typeERS9_
FNDA:1,_ZSt3getILm2EJiiiiEERKNSt13tuple_elementIXT_ESt5tupleIJDpT0_EEE4typeERKS4_
FNDA:3,_ZSt3getILm0EJZN12ActiveObjectC4EvEUlvE_EEONSt13tuple_elementIXT_ESt5tupleIJDpT0_EEE4typeEOS6_
FNDA:3,_ZNSt10_Head_baseILm0EPNSt6thread6_StateELb0EEC2Ev
FNDA:5,_ZNSt10_Head_baseILm0ERiLb0EEC2ES0_
FNDA:5,_ZNSt10_Head_baseILm1ERiLb0EEC2ES0_
FNDA:5,_ZNSt10_Head_baseILm2ERiLb0EEC2ES0_
FNDA:2,_ZNSt10_Head_baseILm3ERKSt15_Swallow_assignLb0EEC2ES2_
FNDA:3,_ZNSt10_Head_baseILm3ERiLb0EEC2ES0_
FNDA:3,_ZNSt10_Head_baseILm0EZN12ActiveObjectC4EvEUlvE_Lb0EEC2IS1_EEOT_
FNDA:4,_ZNSt10_Head_baseILm0EiLb0EEC2IRiEEOT_
FNDA:4,_ZNSt10_Head_baseILm1EiLb0EEC2IRiEEOT_
FNDA:4,_ZNSt10_Head_baseILm2EiLb0EEC2IRiEEOT_
FNDA:2,_ZNSt10_Head_baseILm3EiLb0EEC2IRiEEOT_
FNDA:2,_ZNSt10_Head_baseILm3EiLb0EEC2ImEEOT_
FNDA:2,_ZSt3tieIJiiiKSt15_Swallow_assignEESt5tupleIJDpRT_EES5_
FNDA:3,_ZSt3tieIJiiiiEESt5tupleIJDpRT_EES3_
FNDA:2,_ZNKSt15_Swallow_assignaSIiEERKS_RKT_
FNDA:6,_ZNSt10_Head_baseILm0EPNSt6thread6_StateELb0EE7_M_headERS3_
FNDA:5,_ZNSt10_Head_baseILm0ERiLb0EE7_M_headERS1_
FNDA:3,_ZNSt10_Head_baseILm0EZN12ActiveObjectC4EvEUlvE_Lb0EE7_M_headERS2_
FNDA:5,_ZNSt10_Head_baseILm1ERiLb0EE7_M_headERS1_
FNDA:5,_ZNSt10_Head_baseILm2ERiLb0EE7_M_headERS1_
FNDA:2,_ZNSt10_Head_baseILm3ERKSt15_Swallow_assignLb0EE7_M_headERS3_
FNDA:3,_ZNSt10_Head_baseILm3ERiLb0EE7_M_headERS1_
FNDA:5,_ZNSt10_Head_baseILm0EiLb0EE7_M_headERKS0_
FNDA:5,_ZNSt10_Head_baseILm1EiLb0EE7_M_headERKS0_
FNDA:6,_ZNSt10_Head_baseILm2EiLb0EE7_M_headERKS0_
FNDA:5,_ZNSt10_Head_baseILm3EiLb0EE7_M_headERKS0_
FNDA:6,_ZNSt11_Tuple_implILm0EJPNSt6thread6_StateESt14default_deleteIS1_EEE7_M_headERS5_
FNDA:2,_ZNSt11_Tuple_implILm0EJRiS0_S0_RKSt15_Swallow_assignEE7_M_headERS4_
FNDA:3,_ZNSt11_Tuple_implILm0EJRiS0_S0_S0_EE7_M_headERS1_
FNDA:2,_ZNSt11_Tuple_implILm1EJRiS0_RKSt15_Swallow_assignEE7_M_headERS4_
FNDA:3,_ZNSt11_Tuple_implILm1EJRiS0_S0_EE7_M_headERS1_
FNDA:2,_ZNSt11_Tuple_implILm2EJRiRKSt15_Swallow_assignEE7_M_headERS4_
FNDA:3,_ZNSt11_Tuple_implILm2EJRiS0_EE7_M_headERS1_
FNDA:5,_ZNSt11_Tuple_implILm0EJiiiiEE7_M_headERKS0_
FNDA:5,_ZNSt11_Tuple_implILm1EJiiiEE7_M_headERKS0_
FNDA:6,_ZNSt11_Tuple_implILm2EJiiEE7_M_headERKS0_
FNDA:2,_ZNSt11_Tuple_implILm0EJRiS0_S0_RKSt15_Swallow_assignEE7_M_tailERS4_
FNDA:3,_ZNSt11_Tuple_implILm0EJRiS0_S0_S0_EE7_M_tailERS1_
FNDA:2,_ZNSt11_Tuple_implILm1EJRiS0_RKSt15_Swallow_assignEE7_M_tailERS4_
FNDA:3,_ZNSt11_Tuple_implILm1EJRiS0_S0_EE7_M_tailERS1_
FNDA:2,_ZNSt11_Tuple_implILm2EJRiRKSt15_Swallow_assignEE7_M_tailERS4_
FNDA:3,_ZNSt11_Tuple_implILm2EJRiS0_EE7_M_tailERS1_
FNDA:5,_ZNSt11_Tuple_implILm0EJiiiiEE7_M_tailERKS0_
FNDA:5,_ZNSt11_Tuple_implILm1EJiiiEE7_M_tailERKS0_
FNDA:5,_ZNSt11_Tuple_implILm2EJiiEE7_M_tailERKS0_
FNDA:3,_ZNSt11_Tuple_implILm0EJPNSt6thread6_StateESt14default_deleteIS1_EEEC2Ev
FNDA:2,_ZNSt11_Tuple_implILm0EJRiS0_S0_RKSt15_Swallow_assignEEC2ES0_S0_S0_S3_
FNDA:3,_ZNSt11_Tuple_implILm0EJRiS0_S0_S0_EEC2ES0_S0_S0_S0_
FNDA:2,_ZNSt11_Tuple_implILm1EJRiS0_RKSt15_Swallow_assignEEC2ES0_S0_S3_
FNDA:3,_ZNSt11_Tuple_implILm1EJRiS0_S0_EEC2ES0_S0_S0_
FNDA:2,_ZNSt11_Tuple_implILm2EJRiRKSt15_Swallow_assignEEC2ES0_S3_
FNDA:3,_ZNSt11_Tuple_implILm2EJRiS0_EEC2ES0_S0_
FNDA:2,_ZNSt11_Tuple_implILm0EJiiiiEEC2IRiJS2_S2_S2_EvEEOT_DpOT0_
FNDA:2,_ZNSt11_Tuple_implILm0EJiiiiEEC2IRiJS2_S2_mEvEEOT_DpOT0_
FNDA:2,_ZNSt11_Tuple_implILm1EJiiiEEC2IRiJS2_S2_EvEEOT_DpOT0_
FNDA:2,_ZNSt11_Tuple_implILm1EJiiiEEC2IRiJS2_mEvEEOT_DpOT0_
FNDA:2,_ZNSt11_Tuple_implILm2EJiiEEC2IRiJS2_EvEEOT_DpOT0_
FNDA:2,_ZNSt11_Tuple_implILm2EJiiEEC2IRiJmEvEEOT_DpOT0_
FNDA:0,_ZNSt11_Tuple_implILm0EJiiiiEEC2EOS0_
FNDA:0,_ZNSt11_Tuple_implILm1EJiiiEEC2EOS0_
FNDA:0,_ZNSt11_Tuple_implILm2EJiiEEC2EOS0_
FNDA:2,_ZNSt11_Tuple_implILm0EJRiS0_S0_RKSt15_Swallow_assignEE9_M_assignIJiiiiEEEvRKS_ILm0EJDpT_EE
FNDA:3,_ZNSt11_Tuple_implILm0EJRiS0_S0_S0_EE9_M_assignIJiiiiEEEvRKS_ILm0EJDpT_EE
FNDA:2,_ZNSt11_Tuple_implILm1EJRiS0_RKSt15_Swallow_assignEE9_M_assignIJiiiEEEvRKS_ILm1EJDpT_EE
FNDA:3,_ZNSt11_Tuple_implILm1EJRiS0_S0_EE9_M_assignIJiiiEEEvRKS_ILm1EJDpT_EE
FNDA:2,_ZNSt11_Tuple_implILm2EJRiRKSt15_Swallow_assignEE9_M_assignIJiiEEEvRKS_ILm2EJDpT_EE
FNDA:3,_ZNSt11_Tuple_implILm2EJRiS0_EE9_M_assignIJiiEEEvRKS_ILm2EJDpT_EE
FNDA:3,_ZNSt11_Tuple_implILm0EJZN12ActiveObjectC4EvEUlvE_EE7_M_headERS2_
FNDA:0,_ZNSt11_Tuple_implILm1EJSt14default_deleteINSt6thread6_StateEEEE7_M_headERS4_
FNDA:2,_ZNSt11_Tuple_implILm3EJRKSt15_Swallow_assignEE7_M_headERS3_
FNDA:3,_ZNSt11_Tuple_implILm3EJRiEE7_M_headERS1_
FNDA:5,_ZNSt11_Tuple_implILm3EJiEE7_M_headERKS0_
FNDA:3,_ZNSt11_Tuple_implILm1EJSt14default_deleteINSt6thread6_StateEEEEC2Ev
FNDA:2,_ZNSt11_Tuple_implILm3EJRKSt15_Swallow_assignEEC2ES2_
FNDA:3,_ZNSt11_Tuple_implILm3EJRiEEC2ES0_
FNDA:3,_ZNSt11_Tuple_implILm0EJZN12ActiveObjectC4EvEUlvE_EEC2IS1_EEOT_
FNDA:2,_ZNSt11_Tuple_implILm3EJiEEC2IRiEEOT_
FNDA:2,_ZNSt11_Tuple_implILm3EJiEEC2ImEEOT_
FNDA:0,_ZNSt11_Tuple_implILm3EJiEEC2EOS0_
FNDA:2,_ZNSt11_Tuple_implILm3EJRKSt15_Swallow_assignEE9_M_assignIiEEvRKS_ILm3EJT_EE
FNDA:3,_ZNSt11_Tuple_implILm3EJRiEE9_M_assignIiEEvRKS_ILm3EJT_EE
FNDA:3,_ZNSt10_Head_baseILm1ESt14default_deleteINSt6thread6_StateEELb1EEC2Ev
FNDA:2,_ZNSt5tupleIJRiS0_S0_RKSt15_Swallow_assignEEC2ILb1ELb1EEES0_S0_S0_S3_
FNDA:3,_ZNSt5tupleIJRiS0_S0_S0_EEC2ILb1ELb1EEES0_S0_S0_S0_
FNDA:3,_ZNSt5tupleIJZN12ActiveObjectC4EvEUlvE_EEC2IJS1_ELb1ELb1EEEDpOT_
FNDA:2,_ZNSt5tupleIJiiiiEEC2IJRiS2_S2_S2_ELb1ELb1EEEDpOT_
FNDA:2,_ZNSt5tupleIJiiiiEEC2IJRiS2_S2_mELb1ELb1EEEDpOT_
FNDA:0,_ZNSt5tupleIJiiiiEEC2EOS0_
FNF:100
FNH:91
DA:81,3
DA:82,3
DA:125,0
DA:190,3
DA:191,3
DA:193,20
DA:194,20
DA:200,19
DA:201,19
DA:234,29
DA:237,21
DA:269,21
DA:272,16
DA:275,15
DA:278,15
DA:280,3
DA:281,3
DA:284,15
DA:285,15
DA:286,15
DA:291,12
DA:293,12
DA:294,12
DA:302,0
DA:427,15
DA:429,15
DA:430,30
DA:431,15
DA:432,15
DA:497,8
DA:500,5
DA:503,3
DA:504,3
DA:507,5
DA:508,5
DA:509,5
DA:513,7
DA:514,7
DA:515,7
DA:527,0
DA:529,0
DA:530,0
DA:632,5
DA:634,5
DA:635,5
DA:874,5
DA:876,5
DA:889,7
DA:891,7
DA:903,0
DA:1124,5
DA:1127,5
DA:1128,5
DA:1317,3
DA:1319,3
DA:1787,9
DA:1788,9
DA:1792,1
DA:1793,1
DA:1803,6
DA:1804,6
DA:1809,1
DA:1810,1
DA:1815,3
DA:1818,3
DA:2169,5
DA:2170,5
DA:2212,2
DA:2213,2
LF:69
LH:63
end_of_record
TN:
SF:/usr/include/x86_64-linux-gnu/c++/13/bits/c++config.h
FN:540,551,_ZSt23__is_constant_evaluatedv
FNDA:52,_ZSt23__is_constant_evaluatedv
FNF:1
FNH:1
DA:322,0
DA:540,52
DA:547,52
LF:3
LH:2
end_of_record
TN:
SF:/usr/include/x86_64-linux-gnu/c++/13/bits/gthr-default.h
FN:300,303,_ZL18__gthread_active_pv
FN:746,752,_ZL20__gthread_mutex_lockP15pthread_mutex_t
FN:776,782,_ZL22__gthread_mutex_unlockP15pthread_mutex_t
FNDA:48,_ZL18__gthread_active_pv
FNDA:24,_ZL20__gthread_mutex_lockP15pthread_mutex_t
FNDA:24,_ZL22__gthread_mutex_unlockP15pthread_mutex_t
FNF:3
FNH:3
DA:300,48
DA:302,48
DA:746,24
DA:748,24
DA:749,24
DA:751,0
DA:776,24
DA:778,24
DA:779,24
DA:781,0
LF:10
LH:8
end_of_record
